ARM GAS  C:\Users\no\AppData\Local\Temp\ccMm7V4h.s 			page 1


   1              		.cpu cortex-m3
   2              		.eabi_attribute 20, 1
   3              		.eabi_attribute 21, 1
   4              		.eabi_attribute 23, 3
   5              		.eabi_attribute 24, 1
   6              		.eabi_attribute 25, 1
   7              		.eabi_attribute 26, 1
   8              		.eabi_attribute 30, 6
   9              		.eabi_attribute 34, 1
  10              		.eabi_attribute 18, 4
  11              		.file	"common.c"
  12              		.text
  13              	.Ltext0:
  14              		.cfi_sections	.debug_frame
  15              		.section	.text.Delay_ms,"ax",%progbits
  16              		.align	1
  17              		.global	Delay_ms
  18              		.arch armv7-m
  19              		.syntax unified
  20              		.thumb
  21              		.thumb_func
  22              		.fpu softvfp
  24              	Delay_ms:
  25              	.LFB29:
  26              		.file 1 "User/common.c"
   1:User/common.c **** #include"common.h"
   2:User/common.c **** 
   3:User/common.c **** void Delay_ms(u32 i) {
  27              		.loc 1 3 22
  28              		.cfi_startproc
  29              		@ args = 0, pretend = 0, frame = 16
  30              		@ frame_needed = 1, uses_anonymous_args = 0
  31              		@ link register save eliminated.
  32 0000 80B4     		push	{r7}
  33              	.LCFI0:
  34              		.cfi_def_cfa_offset 4
  35              		.cfi_offset 7, -4
  36 0002 85B0     		sub	sp, sp, #20
  37              	.LCFI1:
  38              		.cfi_def_cfa_offset 24
  39 0004 00AF     		add	r7, sp, #0
  40              	.LCFI2:
  41              		.cfi_def_cfa_register 7
  42 0006 7860     		str	r0, [r7, #4]
   4:User/common.c **** 	u32 tmp;
   5:User/common.c **** 	SysTick->LOAD = 9000 * i;
  43              		.loc 1 5 9
  44 0008 124A     		ldr	r2, .L4
  45              		.loc 1 5 23
  46 000a 7B68     		ldr	r3, [r7, #4]
  47 000c 42F22831 		movw	r1, #9000
  48 0010 01FB03F3 		mul	r3, r1, r3
  49              		.loc 1 5 16
  50 0014 5360     		str	r3, [r2, #4]
   6:User/common.c **** 	SysTick->CTRL = 0x01;
  51              		.loc 1 6 9
  52 0016 0F4B     		ldr	r3, .L4
ARM GAS  C:\Users\no\AppData\Local\Temp\ccMm7V4h.s 			page 2


  53              		.loc 1 6 16
  54 0018 0122     		movs	r2, #1
  55 001a 1A60     		str	r2, [r3]
   7:User/common.c **** 	SysTick->VAL = 0;
  56              		.loc 1 7 9
  57 001c 0D4B     		ldr	r3, .L4
  58              		.loc 1 7 15
  59 001e 0022     		movs	r2, #0
  60 0020 9A60     		str	r2, [r3, #8]
  61              	.L3:
   8:User/common.c **** 	do {
   9:User/common.c **** 		tmp = SysTick->CTRL;
  62              		.loc 1 9 16 discriminator 2
  63 0022 0C4B     		ldr	r3, .L4
  64              		.loc 1 9 7 discriminator 2
  65 0024 1B68     		ldr	r3, [r3]
  66 0026 FB60     		str	r3, [r7, #12]
  10:User/common.c **** 	} while ((tmp & 0x01) && (!(tmp & (1 << 16))));
  67              		.loc 1 10 16 discriminator 2
  68 0028 FB68     		ldr	r3, [r7, #12]
  69 002a 03F00103 		and	r3, r3, #1
  70              		.loc 1 10 2 discriminator 2
  71 002e 002B     		cmp	r3, #0
  72 0030 04D0     		beq	.L2
  73              		.loc 1 10 34 discriminator 1
  74 0032 FB68     		ldr	r3, [r7, #12]
  75 0034 03F48033 		and	r3, r3, #65536
  76              		.loc 1 10 24 discriminator 1
  77 0038 002B     		cmp	r3, #0
  78 003a F2D0     		beq	.L3
  79              	.L2:
  11:User/common.c **** 	SysTick->CTRL = 0x00;
  80              		.loc 1 11 9
  81 003c 054B     		ldr	r3, .L4
  82              		.loc 1 11 16
  83 003e 0022     		movs	r2, #0
  84 0040 1A60     		str	r2, [r3]
  12:User/common.c **** 	SysTick->VAL = 0;
  85              		.loc 1 12 9
  86 0042 044B     		ldr	r3, .L4
  87              		.loc 1 12 15
  88 0044 0022     		movs	r2, #0
  89 0046 9A60     		str	r2, [r3, #8]
  13:User/common.c **** }
  90              		.loc 1 13 1
  91 0048 00BF     		nop
  92 004a 1437     		adds	r7, r7, #20
  93              	.LCFI3:
  94              		.cfi_def_cfa_offset 4
  95 004c BD46     		mov	sp, r7
  96              	.LCFI4:
  97              		.cfi_def_cfa_register 13
  98              		@ sp needed
  99 004e 80BC     		pop	{r7}
 100              	.LCFI5:
 101              		.cfi_restore 7
 102              		.cfi_def_cfa_offset 0
ARM GAS  C:\Users\no\AppData\Local\Temp\ccMm7V4h.s 			page 3


 103 0050 7047     		bx	lr
 104              	.L5:
 105 0052 00BF     		.align	2
 106              	.L4:
 107 0054 10E000E0 		.word	-536813552
 108              		.cfi_endproc
 109              	.LFE29:
 111              		.text
 112              	.Letext0:
 113              		.file 2 "d:\\program files (x86)\\gnu arm embedded toolchain\\9 2020-q2-update\\arm-none-eabi\\inc
 114              		.file 3 "d:\\program files (x86)\\gnu arm embedded toolchain\\9 2020-q2-update\\arm-none-eabi\\inc
 115              		.file 4 "CMSIS/CM3/CoreSupport/core_cm3.h"
 116              		.file 5 "CMSIS/CM3/DeviceSupport/ST/STM32F10x/system_stm32f10x.h"
 117              		.file 6 "CMSIS/CM3/DeviceSupport/ST/STM32F10x/stm32f10x.h"
ARM GAS  C:\Users\no\AppData\Local\Temp\ccMm7V4h.s 			page 4

