ARM GAS  C:\Users\no\AppData\Local\Temp\ccG7wc6f.s 			page 1


   1              		.cpu cortex-m3
   2              		.eabi_attribute 20, 1
   3              		.eabi_attribute 21, 1
   4              		.eabi_attribute 23, 3
   5              		.eabi_attribute 24, 1
   6              		.eabi_attribute 25, 1
   7              		.eabi_attribute 26, 1
   8              		.eabi_attribute 30, 6
   9              		.eabi_attribute 34, 1
  10              		.eabi_attribute 18, 4
  11              		.file	"main.c"
  12              		.text
  13              	.Ltext0:
  14              		.cfi_sections	.debug_frame
  15              		.global	BMP1
  16              		.section	.data.BMP1,"aw"
  17              		.align	2
  20              	BMP1:
  21 0000 00030509 		.ascii	"\000\003\005\011\021\377\021\211\005\303\000\340\000"
  21      11FF1189 
  21      05C300E0 
  21      00
  22 000d F000F800 		.ascii	"\360\000\370\000\000\000\000\000\000\000D(\377\021\252"
  22      00000000 
  22      00004428 
  22      FF11AA
  23 001c 44000000 		.ascii	"D\000\000\000\000\000\000\000\000\000\000\000\000\000"
  23      00000000 
  23      00000000 
  23      0000
  24 002a 00000000 		.ascii	"\000\000\000\000\000\000\000\000\000\000\000\000\000"
  24      00000000 
  24      00000000 
  24      00
  25 0037 00000000 		.ascii	"\000\000\000\000\000\000\000\000\000\000\000\000\000"
  25      00000000 
  25      00000000 
  25      00
  26 0044 00000000 		.ascii	"\000\000\000\000\000\000\000\000\000\000\000\000\000"
  26      00000000 
  26      00000000 
  26      00
  27 0051 00000000 		.ascii	"\000\000\000\000\000\000\000\000\000\203\0018D\202\222"
  27      00000000 
  27      00830138 
  27      448292
  28 0060 92740183 		.ascii	"\222t\001\203\000\000\000\000\000\000\000|D\377\001"
  28      00000000 
  28      0000007C 
  28      44FF01
  29 006f 7D7D7D01 		.ascii	"}}}\001}}}}\001}}}}}\001\377\000\000\000\000\000\000"
  29      7D7D7D7D 
  29      017D7D7D 
  29      7D7D01FF 
  29      00000000 
  30 0085 01000100 		.ascii	"\001\000\001\000\001\000\001\000\001\000\001\000\000"
  30      01000100 
ARM GAS  C:\Users\no\AppData\Local\Temp\ccG7wc6f.s 			page 2


  30      01000100 
  30      00
  31 0092 00000000 		.ascii	"\000\000\000\000\000\000\000\001\001\000\000\000\000"
  31      00000001 
  31      01000000 
  31      00
  32 009f 00000000 		.ascii	"\000\000\000\000\000\000\000\000\000\000\000\000\000"
  32      00000000 
  32      00000000 
  32      00
  33 00ac 00000000 		.ascii	"\000\000\000\000\000\000\000\000\000\000\000\000\000"
  33      00000000 
  33      00000000 
  33      00
  34 00b9 00000000 		.ascii	"\000\000\000\000\000\000\000\000\000\000\000\000\000"
  34      00000000 
  34      00000000 
  34      00
  35 00c6 00000000 		.ascii	"\000\000\000\000\000\000\000\000\000\000\000\000\000"
  35      00000000 
  35      00000000 
  35      00
  36 00d3 00000000 		.ascii	"\000\000\000\000\000\000\000\001\001\000\000\000\000"
  36      00000001 
  36      01000000 
  36      00
  37 00e0 00000101 		.ascii	"\000\000\001\001\000\000\000\000\000\000\000\000\000"
  37      00000000 
  37      00000000 
  37      00
  38 00ed 01010101 		.ascii	"\001\001\001\001\001\001\001\001\001\001\001\001\001"
  38      01010101 
  38      01010101 
  38      01
  39 00fa 01010101 		.ascii	"\001\001\001\001\001\000\000\000\000\000\000\000\000"
  39      01000000 
  39      00000000 
  39      00
  40 0107 00000000 		.ascii	"\000\000\000\000\000\000\000\000\000\000\000\000\000"
  40      00000000 
  40      00000000 
  40      00
  41 0114 00000000 		.ascii	"\000\000\000\000\000\000\000\000??\003\003\363\023\021"
  41      00000000 
  41      3F3F0303 
  41      F31311
  42 0123 11111111 		.ascii	"\021\021\021\021\021\001\361\021a\201\001\001\001\201"
  42      1101F111 
  42      61810101 
  42      0181
  43 0131 6111F101 		.ascii	"a\021\361\001\001\001\001AA\361\001\001\001\001\001"
  43      01010141 
  43      41F10101 
  43      010101
  44 0140 C1211111 		.ascii	"\301!\021\021\021\021!\301\001\001\001\001AA\361\001"
  44      111121C1 
  44      01010101 
ARM GAS  C:\Users\no\AppData\Local\Temp\ccG7wc6f.s 			page 3


  44      4141F101 
  45 0150 01010101 		.ascii	"\001\001\001\001\001\001\001\001\001\021\021\021\021"
  45      01010101 
  45      01111111 
  45      11
  46 015d 11D33303 		.ascii	"\021\3233\003\003??\000\000\000\000\000\000\000\000"
  46      033F3F00 
  46      00000000 
  46      000000
  47 016c 00000000 		.ascii	"\000\000\000\000\000\000\000\000\000\000\000\000\000"
  47      00000000 
  47      00000000 
  47      00
  48 0179 00000000 		.ascii	"\000\000\000\000\000\000\000\000\000\000\000\000\000"
  48      00000000 
  48      00000000 
  48      00
  49 0186 00000000 		.ascii	"\000\000\000\000\000\000\000\000\000\000\000\000\000"
  49      00000000 
  49      00000000 
  49      00
  50 0193 00000000 		.ascii	"\000\000\000\000\000\000\000\000\000\340\340\000\000"
  50      00000000 
  50      00E0E000 
  50      00
  51 01a0 7F010101 		.ascii	"\177\001\001\001\001\001\001\000\000\177\000\000\001"
  51      01010100 
  51      007F0000 
  51      01
  52 01ad 06180601 		.ascii	"\006\030\006\001\000\000\177\000\000\000\000@@\177@"
  52      00007F00 
  52      00000040 
  52      407F40
  53 01bc 40000000 		.ascii	"@\000\000\000\037 @@@@ \037\000\000\000\000@@\177@@"
  53      1F204040 
  53      4040201F 
  53      00000000 
  53      40407F40 
  54 01d1 00000000 		.ascii	"\000\000\000\000`\000\000\000\000@0\014\003\000\000"
  54      60000000 
  54      0040300C 
  54      030000
  55 01e0 0000E0E0 		.ascii	"\000\000\340\340\000\000\000\000\000\000\000\000\000"
  55      00000000 
  55      00000000 
  55      00
  56 01ed 00000000 		.ascii	"\000\000\000\000\000\000\000\000\000\000\000\000\000"
  56      00000000 
  56      00000000 
  56      00
  57 01fa 00000000 		.ascii	"\000\000\000\000\000\000\000\000\000\000\000\000\000"
  57      00000000 
  57      00000000 
  57      00
  58 0207 00000000 		.ascii	"\000\000\000\000\000\000\000\000\000\000\000\000\000"
  58      00000000 
  58      00000000 
ARM GAS  C:\Users\no\AppData\Local\Temp\ccG7wc6f.s 			page 4


  58      00
  59 0214 00000000 		.ascii	"\000\000\000\000\000\000\000\000\007\007\006\006\006"
  59      00000000 
  59      07070606 
  59      06
  60 0221 06040404 		.ascii	"\006\004\004\004\204DDD\204\004\004\204DDD\204\004\004"
  60      84444444 
  60      84040484 
  60      44444484 
  60      0404
  61 0233 0484C404 		.ascii	"\004\204\304\004\004\004\004\204DDD\204\004\004\004"
  61      04040484 
  61      44444484 
  61      040404
  62 0242 04048444 		.ascii	"\004\004\204DDD\204\004\004\004\004\004\204DDD\204\004"
  62      44448404 
  62      04040404 
  62      84444444 
  62      8404
  63 0254 04844444 		.ascii	"\004\204DDD\204\004\004\004\004\006\006\006\006\007"
  63      44840404 
  63      04040606 
  63      060607
  64 0263 07000000 		.ascii	"\007\000\000\000\000\000\000\000\000\000\000\000\000"
  64      00000000 
  64      00000000 
  64      00
  65 0270 00000000 		.ascii	"\000\000\000\000\000\000\000\000\000\000\000\000\000"
  65      00000000 
  65      00000000 
  65      00
  66 027d 00000000 		.ascii	"\000\000\000\000\000\000\000\000\000\000\000\000\000"
  66      00000000 
  66      00000000 
  66      00
  67 028a 00000000 		.ascii	"\000\000\000\000\000\000\000\000\000\000\000\000\000"
  67      00000000 
  67      00000000 
  67      00
  68 0297 00000000 		.ascii	"\000\000\000\000\000\000\000\000\000\000\000\000\000"
  68      00000000 
  68      00000000 
  68      00
  69 02a4 00101814 		.ascii	"\000\020\030\024\022\021\000\000\017\020\020\020\017"
  69      12110000 
  69      0F101010 
  69      0F
  70 02b1 00000010 		.ascii	"\000\000\000\020\037\020\000\000\000\010\020\022\022"
  70      1F100000 
  70      00081012 
  70      12
  71 02be 0D000018 		.ascii	"\015\000\000\030\000\000\015\022\022\022\015\000\000"
  71      00000D12 
  71      12120D00 
  71      00
  72 02cb 18000010 		.ascii	"\030\000\000\020\030\024\022\021\000\000\020\030\024"
  72      18141211 
ARM GAS  C:\Users\no\AppData\Local\Temp\ccG7wc6f.s 			page 5


  72      00001018 
  72      14
  73 02d8 12110000 		.ascii	"\022\021\000\000\000\000\000\000\000\000\000\000\000"
  73      00000000 
  73      00000000 
  73      00
  74 02e5 00000000 		.ascii	"\000\000\000\000\000\000\000\000\000\000\000\000\000"
  74      00000000 
  74      00000000 
  74      00
  75 02f2 00000000 		.ascii	"\000\000\000\000\000\000\000\000\000\000\000\000\000"
  75      00000000 
  75      00000000 
  75      00
  76 02ff 00000000 		.ascii	"\000\000\000\000\000\000\000\000\000\000\000\000\000"
  76      00000000 
  76      00000000 
  76      00
  77 030c 00000000 		.ascii	"\000\000\000\000\000\000\000\000\000\000\000\000\000"
  77      00000000 
  77      00000000 
  77      00
  78 0319 00000000 		.ascii	"\000\000\000\000\000\000\000\000\000\000\000\000\000"
  78      00000000 
  78      00000000 
  78      00
  79 0326 00000000 		.ascii	"\000\000\000\000\000\000\000\000\000\000\000\000\000"
  79      00000000 
  79      00000000 
  79      00
  80 0333 00000000 		.ascii	"\000\000\000\000\000\000\000\000\000\200\200\200\200"
  80      00000000 
  80      00808080 
  80      80
  81 0340 80808080 		.ascii	"\200\200\200\200\000\000\000\000\000\000\000\000\000"
  81      00000000 
  81      00000000 
  81      00
  82 034d 00000000 		.ascii	"\000\000\000\000\000\000\000\000\000\000\000\000\000"
  82      00000000 
  82      00000000 
  82      00
  83 035a 00000000 		.ascii	"\000\000\000\000\000\000\000\000\000\000\000\000\000"
  83      00000000 
  83      00000000 
  83      00
  84 0367 00000000 		.ascii	"\000\000\000\000\000\000\000\000\000\000\000\000\000"
  84      00000000 
  84      00000000 
  84      00
  85 0374 00000000 		.ascii	"\000\000\000\000\000\000\000\000\000\000\000\000\000"
  85      00000000 
  85      00000000 
  85      00
  86 0381 7F030C30 		.ascii	"\177\003\0140\014\003\177\000\0008TTX\000\000|\004\004"
  86      0C037F00 
  86      00385454 
ARM GAS  C:\Users\no\AppData\Local\Temp\ccG7wc6f.s 			page 6


  86      5800007C 
  86      0404
  87 0393 7800003C 		.ascii	"x\000\000<@@|\000\000\000\000\000\000\000\000\000\000"
  87      40407C00 
  87      00000000 
  87      00000000 
  87      00
  88 03a4 00000000 		.ascii	"\000\000\000\000\000\000\000\000\000\000\000\000\000"
  88      00000000 
  88      00000000 
  88      00
  89 03b1 00000000 		.ascii	"\000\000\000\000\000\000\000\000\000\000\000\377\252"
  89      00000000 
  89      000000FF 
  89      AA
  90 03be AAAA2808 		.ascii	"\252\252(\010\000\377\000\000\000\000\000\000\000\000"
  90      00FF0000 
  90      00000000 
  90      0000
  91 03cc 00000000 		.ascii	"\000\000\000\000\000\000\000\000\000\000\000\000\000"
  91      00000000 
  91      00000000 
  91      00
  92 03d9 00000000 		.ascii	"\000\000\000\000\000\000\000\000\000\000\000\000\000"
  92      00000000 
  92      00000000 
  92      00
  93 03e6 0000007F 		.ascii	"\000\000\000\177\003\0140\014\003\177\000\000&III2\000"
  93      030C300C 
  93      037F0000 
  93      26494949 
  93      3200
  94 03f8 007F0204 		.ascii	"\000\177\002\004\010\020\177\000"
  94      08107F00 
  95              		.global	BMP2
  96              		.section	.data.BMP2,"aw"
  97              		.align	2
 100              	BMP2:
 101 0000 00030509 		.ascii	"\000\003\005\011\021\377\021\211\005\303\000\340\000"
 101      11FF1189 
 101      05C300E0 
 101      00
 102 000d F000F800 		.ascii	"\360\000\370\000\000\000\000\000\000\000D(\377\021\252"
 102      00000000 
 102      00004428 
 102      FF11AA
 103 001c 44000000 		.ascii	"D\000\000\000\000\000\000\000\000\000\000\000\000\000"
 103      00000000 
 103      00000000 
 103      0000
 104 002a 00000000 		.ascii	"\000\000\000\000\000\000\000\000\000\000\000\000\000"
 104      00000000 
 104      00000000 
 104      00
 105 0037 00000000 		.ascii	"\000\000\000\000\000\000\000\000\000\000\000\000\000"
 105      00000000 
 105      00000000 
ARM GAS  C:\Users\no\AppData\Local\Temp\ccG7wc6f.s 			page 7


 105      00
 106 0044 00000000 		.ascii	"\000\000\000\000\000\000\000\000\000\000\000\000\000"
 106      00000000 
 106      00000000 
 106      00
 107 0051 00000000 		.ascii	"\000\000\000\000\000\000\000\000\000\203\0018D\202\222"
 107      00000000 
 107      00830138 
 107      448292
 108 0060 92740183 		.ascii	"\222t\001\203\000\000\000\000\000\000\000|D\377\001"
 108      00000000 
 108      0000007C 
 108      44FF01
 109 006f 7D7D7D7D 		.ascii	"}}}}\001}}}}\001}}}}\001\377\000\000\000\000\000\000"
 109      017D7D7D 
 109      7D017D7D 
 109      7D7D01FF 
 109      00000000 
 110 0085 01000100 		.ascii	"\001\000\001\000\001\000\001\000\001\000\001\000\000"
 110      01000100 
 110      01000100 
 110      00
 111 0092 00000000 		.ascii	"\000\000\000\000\000\000\000\001\001\000\000\000\000"
 111      00000001 
 111      01000000 
 111      00
 112 009f 00000000 		.ascii	"\000\000\000\000\000\000\000\000\000\000\000\000\000"
 112      00000000 
 112      00000000 
 112      00
 113 00ac 00000000 		.ascii	"\000\000\000\000\000\000\000\000\000\000\000\000\000"
 113      00000000 
 113      00000000 
 113      00
 114 00b9 00000000 		.ascii	"\000\000\000\000\000\000\000\000\000\000\000\000\000"
 114      00000000 
 114      00000000 
 114      00
 115 00c6 00000000 		.ascii	"\000\000\000\000\000\000\000\000\000\000\000\000\000"
 115      00000000 
 115      00000000 
 115      00
 116 00d3 00000000 		.ascii	"\000\000\000\000\000\000\000\001\001\000\000\000\000"
 116      00000001 
 116      01000000 
 116      00
 117 00e0 00000101 		.ascii	"\000\000\001\001\000\000\000\000\000\000\000\000\000"
 117      00000000 
 117      00000000 
 117      00
 118 00ed 01010101 		.ascii	"\001\001\001\001\001\001\001\001\001\001\001\001\001"
 118      01010101 
 118      01010101 
 118      01
 119 00fa 01010101 		.ascii	"\001\001\001\001\001\000\000\000\000\000\000\000\000"
 119      01000000 
 119      00000000 
ARM GAS  C:\Users\no\AppData\Local\Temp\ccG7wc6f.s 			page 8


 119      00
 120 0107 00000000 		.ascii	"\000\000\000\000\000\000\000\000\000\000\000\000\000"
 120      00000000 
 120      00000000 
 120      00
 121 0114 00000000 		.ascii	"\000\000\000\000\000\000\000\000\000\000\000\370\010"
 121      00000000 
 121      000000F8 
 121      08
 122 0121 08080808 		.ascii	"\010\010\010\010\010\010\000\370\030`\200\000\000\000"
 122      080800F8 
 122      18608000 
 122      0000
 123 012f 806018F8 		.ascii	"\200`\030\370\000\000\000  \370\000\000\000\000\000"
 123      00000020 
 123      20F80000 
 123      000000
 124 013e 00E01008 		.ascii	"\000\340\020\010\010\010\010\020\340\000\000\000  \370"
 124      08080810 
 124      E0000000 
 124      2020F8
 125 014d 00000000 		.ascii	"\000\000\000\000\000\000\000\000\000\000\000\000\010"
 125      00000000 
 125      00000000 
 125      08
 126 015a 08080808 		.ascii	"\010\010\010\010\210h\030\000\000\000\000\000\000\000"
 126      88681800 
 126      00000000 
 126      0000
 127 0168 00000000 		.ascii	"\000\000\000\000\000\000\000\000\000\000\000\000\000"
 127      00000000 
 127      00000000 
 127      00
 128 0175 00000000 		.ascii	"\000\000\000\000\000\000\000\000\000\000\000\000\000"
 128      00000000 
 128      00000000 
 128      00
 129 0182 00000000 		.ascii	"\000\000\000\000\000\000\000\000\000\000\000\000\000"
 129      00000000 
 129      00000000 
 129      00
 130 018f 00000000 		.ascii	"\000\000\000\000\000\000\000\000\000\000\000\000\000"
 130      00000000 
 130      00000000 
 130      00
 131 019c 0000007F 		.ascii	"\000\000\000\177\001\001\001\001\001\001\000\000\177"
 131      01010101 
 131      01010000 
 131      7F
 132 01a9 00000106 		.ascii	"\000\000\001\006\030\006\001\000\000\177\000\000\000"
 132      18060100 
 132      007F0000 
 132      00
 133 01b6 40407F40 		.ascii	"@@\177@@\000\000\000\000\037 @@@@ \037\000\000\000@"
 133      40000000 
 133      001F2040 
 133      40404020 
ARM GAS  C:\Users\no\AppData\Local\Temp\ccG7wc6f.s 			page 9


 133      1F000000 
 134 01cb 407F4040 		.ascii	"@\177@@\000\000\000\000\000`\000\000\000\000\000\000"
 134      00000000 
 134      00600000 
 134      00000000 
 135 01db 60180601 		.ascii	"`\030\006\001\000\000\000\000\000\000\000\000\000\000"
 135      00000000 
 135      00000000 
 135      0000
 136 01e9 00000000 		.ascii	"\000\000\000\000\000\000\000\000\000\000\000\000\000"
 136      00000000 
 136      00000000 
 136      00
 137 01f6 00000000 		.ascii	"\000\000\000\000\000\000\000\000\000\000\000\000\000"
 137      00000000 
 137      00000000 
 137      00
 138 0203 00000000 		.ascii	"\000\000\000\000\000\000\000\000\000\000\000\000\000"
 138      00000000 
 138      00000000 
 138      00
 139 0210 00000000 		.ascii	"\000\000\000\000\000\000\000\000\000\000\000\000\000"
 139      00000000 
 139      00000000 
 139      00
 140 021d 00000000 		.ascii	"\000\000\000\000\000\000\000\000@   \300\000\000\340"
 140      00000000 
 140      40202020 
 140      C00000E0 
 141 022d 202020E0 		.ascii	"   \340\000\000\000@\340\000\000\000\000`   \340\000"
 141      00000040 
 141      E0000000 
 141      00602020 
 141      20E000
 142 0240 00000000 		.ascii	"\000\000\000\000\340   \340\000\000\000\000\000@   "
 142      E0202020 
 142      E0000000 
 142      00004020 
 142      2020
 143 0252 C0000040 		.ascii	"\300\000\000@   \300\000\000\000\000\000\000\000\000"
 143      202020C0 
 143      00000000 
 143      00000000 
 144 0262 00000000 		.ascii	"\000\000\000\000\000\000\000\000\000\000\000\000\000"
 144      00000000 
 144      00000000 
 144      00
 145 026f 00000000 		.ascii	"\000\000\000\000\000\000\000\000\000\000\000\000\000"
 145      00000000 
 145      00000000 
 145      00
 146 027c 00000000 		.ascii	"\000\000\000\000\000\000\000\000\000\000\000\000\000"
 146      00000000 
 146      00000000 
 146      00
 147 0289 00000000 		.ascii	"\000\000\000\000\000\000\000\000\000\000\000\000\000"
 147      00000000 
ARM GAS  C:\Users\no\AppData\Local\Temp\ccG7wc6f.s 			page 10


 147      00000000 
 147      00
 148 0296 00000000 		.ascii	"\000\000\000\000\000\000\000\000\000\000\000\000\000"
 148      00000000 
 148      00000000 
 148      00
 149 02a3 00000C0A 		.ascii	"\000\000\014\012\012\011\014\000\000\017\010\010\010"
 149      0A090C00 
 149      000F0808 
 149      08
 150 02b0 0F000000 		.ascii	"\017\000\000\000\010\017\010\000\000\000\014\010\011"
 150      080F0800 
 150      00000C08 
 150      09
 151 02bd 090E0000 		.ascii	"\011\016\000\000\014\000\000\017\011\011\011\017\000"
 151      0C00000F 
 151      0909090F 
 151      00
 152 02ca 000C0000 		.ascii	"\000\014\000\000\014\012\012\011\014\000\000\014\012"
 152      0C0A0A09 
 152      0C00000C 
 152      0A
 153 02d7 0A090C00 		.ascii	"\012\011\014\000\000\000\000\000\000\000\000\000\000"
 153      00000000 
 153      00000000 
 153      00
 154 02e4 00000000 		.ascii	"\000\000\000\000\000\000\000\000\000\000\000\000\000"
 154      00000000 
 154      00000000 
 154      00
 155 02f1 00000000 		.ascii	"\000\000\000\000\000\000\000\000\000\000\000\000\000"
 155      00000000 
 155      00000000 
 155      00
 156 02fe 00000000 		.ascii	"\000\000\000\000\000\000\000\000\000\000\000\000\000"
 156      00000000 
 156      00000000 
 156      00
 157 030b 00000000 		.ascii	"\000\000\000\000\000\000\000\000\000\000\000\000\000"
 157      00000000 
 157      00000000 
 157      00
 158 0318 00000000 		.ascii	"\000\000\000\000\000\000\000\000\000\000\000\000\000"
 158      00000000 
 158      00000000 
 158      00
 159 0325 00000000 		.ascii	"\000\000\000\000\000\000\000\000\000\000\000\000\000"
 159      00000000 
 159      00000000 
 159      00
 160 0332 00000000 		.ascii	"\000\000\000\000\000\000\000\000\000\000\200\200\200"
 160      00000000 
 160      00008080 
 160      80
 161 033f 80808080 		.ascii	"\200\200\200\200\200\000\000\000\000\000\000\000\000"
 161      80000000 
 161      00000000 
ARM GAS  C:\Users\no\AppData\Local\Temp\ccG7wc6f.s 			page 11


 161      00
 162 034c 00000000 		.ascii	"\000\000\000\000\000\000\000\000\000\000\000\000\000"
 162      00000000 
 162      00000000 
 162      00
 163 0359 00000000 		.ascii	"\000\000\000\000\000\000\000\000\000\000\000\000\000"
 163      00000000 
 163      00000000 
 163      00
 164 0366 00000000 		.ascii	"\000\000\000\000\000\000\000\000\000\000\000\000\000"
 164      00000000 
 164      00000000 
 164      00
 165 0373 00000000 		.ascii	"\000\000\000\000\000\000\000\000\000\000\000\000\000"
 165      00000000 
 165      00000000 
 165      00
 166 0380 007F030C 		.ascii	"\000\177\003\0140\014\003\177\000\0008TTX\000\000|\004"
 166      300C037F 
 166      00003854 
 166      54580000 
 166      7C04
 167 0392 04780000 		.ascii	"\004x\000\000<@@|\000\000\000\000\000\000\000\000\000"
 167      3C40407C 
 167      00000000 
 167      00000000 
 167      00
 168 03a3 00000000 		.ascii	"\000\000\000\000\000\000\000\000\000\000\000\000\000"
 168      00000000 
 168      00000000 
 168      00
 169 03b0 00000000 		.ascii	"\000\000\000\000\000\000\000\000\000\000\000\000\377"
 169      00000000 
 169      00000000 
 169      FF
 170 03bd AAAAAA28 		.ascii	"\252\252\252(\010\000\377\000\000\000\000\000\000\000"
 170      0800FF00 
 170      00000000 
 170      0000
 171 03cb 00000000 		.ascii	"\000\000\000\000\000\000\000\000\000\000\000\000\000"
 171      00000000 
 171      00000000 
 171      00
 172 03d8 00000000 		.ascii	"\000\000\000\000\000\000\000\000\000\000\000\000\000"
 172      00000000 
 172      00000000 
 172      00
 173 03e5 00000000 		.ascii	"\000\000\000\000\177\003\0140\014\003\177\000\000&I"
 173      7F030C30 
 173      0C037F00 
 173      002649
 174 03f4 49493200 		.ascii	"II2\000\000\177\002\004\010\020\177\000"
 174      007F0204 
 174      08107F00 
 175              		.global	BMP3
 176              		.section	.data.BMP3,"aw"
 177              		.align	2
ARM GAS  C:\Users\no\AppData\Local\Temp\ccG7wc6f.s 			page 12


 180              	BMP3:
 181 0000 00000000 		.ascii	"\000\000\000\000\000\000\000\000\000\000\000\000\000"
 181      00000000 
 181      00000000 
 181      00
 182 000d 000080C0 		.ascii	"\000\000\200\300\340\360\360\360\360\360\360\360\360"
 182      E0F0F0F0 
 182      F0F0F0F0 
 182      F0
 183 001a 00000000 		.ascii	"\000\000\000\000\000\000\000\000\000\000\000\000\200"
 183      00000000 
 183      00000000 
 183      80
 184 0027 C0E0F0F0 		.ascii	"\300\340\360\360\360\360\360\360\360\360\000\000\000"
 184      F0F0F0F0 
 184      F0F00000 
 184      00
 185 0034 00000000 		.ascii	"\000\000\000\000\000\000\000\000\000\000\000\000\000"
 185      00000000 
 185      00000000 
 185      00
 186 0041 00000000 		.ascii	"\000\000\000\000\000\000\000\000\300\340\360\360\370"
 186      00000000 
 186      C0E0F0F0 
 186      F8
 187 004e F8F8FCF8 		.ascii	"\370\370\374\370\370\370\370\360\340\300\200\000\000"
 187      F8F8F8F0 
 187      E0C08000 
 187      00
 188 005b 00000000 		.ascii	"\000\000\000\000\000\200\300\340\360\370\370\370\374"
 188      0080C0E0 
 188      F0F8F8F8 
 188      FC
 189 0068 FCFCF8F8 		.ascii	"\374\374\370\370\370\360\340\300\200\000\000\000\000"
 189      F8F0E0C0 
 189      80000000 
 189      00
 190 0075 00000000 		.ascii	"\000\000\000\000\000\000\000\000\000\000\000\000\000"
 190      00000000 
 190      00000000 
 190      00
 191 0082 00000000 		.ascii	"\000\000\000\000\000\000\000\000\000\000\374\376\377"
 191      00000000 
 191      0000FCFE 
 191      FF
 192 008f FFFF7F3F 		.ascii	"\377\377\177?\377\377\377\377\377\377\377\000\000\000"
 192      FFFFFFFF 
 192      FFFFFF00 
 192      0000
 193 009d 00000000 		.ascii	"\000\000\000\000\000\000\376\376\377\377\377\177?\377"
 193      0000FEFE 
 193      FFFFFF7F 
 193      3FFF
 194 00ab FFFFFFFF 		.ascii	"\377\377\377\377\377\377\000\000\000\000\000\000\000"
 194      FFFF0000 
 194      00000000 
 194      00
ARM GAS  C:\Users\no\AppData\Local\Temp\ccG7wc6f.s 			page 13


 195 00b8 00000000 		.ascii	"\000\000\000\000\000\000\000\000\000\000\000\000\000"
 195      00000000 
 195      00000000 
 195      00
 196 00c5 00C0FCFF 		.ascii	"\000\300\374\377\377\377\377\377\377?\037\017\017\037"
 196      FFFFFFFF 
 196      FF3F1F0F 
 196      0F1F
 197 00d3 FFFFFFFF 		.ascii	"\377\377\377\377\377\377\377\370\000\000\000\370\377"
 197      FFFFFFF8 
 197      000000F8 
 197      FF
 198 00e0 FFFFFFFF 		.ascii	"\377\377\377\377\377\377\037\017\017\017\037\377\377"
 198      FFFF1F0F 
 198      0F0F1FFF 
 198      FF
 199 00ed FFFFFFFF 		.ascii	"\377\377\377\377\377\370\000\000\000\000\000\000\000"
 199      FFF80000 
 199      00000000 
 199      00
 200 00fa 00000000 		.ascii	"\000\000\000\000\000\000\000\000\000\000\000\000\000"
 200      00000000 
 200      00000000 
 200      00
 201 0107 00000000 		.ascii	"\000\000\000\000\000\007\007\003\001\000\000\000\377"
 201      00070703 
 201      01000000 
 201      FF
 202 0114 FFFFFFFF 		.ascii	"\377\377\377\377\377\377\000\000\000\000\000\000\000"
 202      FFFF0000 
 202      00000000 
 202      00
 203 0121 00000707 		.ascii	"\000\000\007\007\003\001\000\000\000\377\377\377\377"
 203      03010000 
 203      00FFFFFF 
 203      FF
 204 012e FFFFFF00 		.ascii	"\377\377\377\000\000\000\000\000\000\000\000\000\370"
 204      00000000 
 204      00000000 
 204      F8
 205 013b F8F8F8F8 		.ascii	"\370\370\370\370\370\370\370\000\000\000\000\377\377"
 205      F8F8F800 
 205      000000FF 
 205      FF
 206 0148 FFFFFFFF 		.ascii	"\377\377\377\377\377\377\000\000\000\000\000\377\377"
 206      FFFF0000 
 206      000000FF 
 206      FF
 207 0155 FFFFFFFF 		.ascii	"\377\377\377\377\377\377\000\000\000\377\377\377\377"
 207      FFFF0000 
 207      00FFFFFF 
 207      FF
 208 0162 FFFFFFFF 		.ascii	"\377\377\377\377\000\000\000\000\000\377\377\377\377"
 208      00000000 
 208      00FFFFFF 
 208      FF
 209 016f FFFFFFFF 		.ascii	"\377\377\377\377\000\000\000\000\000\000\000\000\000"
ARM GAS  C:\Users\no\AppData\Local\Temp\ccG7wc6f.s 			page 14


 209      00000000 
 209      00000000 
 209      00
 210 017c 00000000 		.ascii	"\000\000\000\000\000\000\000\000\000\000\000\000\000"
 210      00000000 
 210      00000000 
 210      00
 211 0189 00000000 		.ascii	"\000\000\000\000\000\000\000\000\000\000\377\377\377"
 211      00000000 
 211      0000FFFF 
 211      FF
 212 0196 FFFFFFFF 		.ascii	"\377\377\377\377\000\000\000\000\000\000\000\000\000"
 212      00000000 
 212      00000000 
 212      00
 213 01a3 00000000 		.ascii	"\000\000\000\000\000\000\000\377\377\377\377\377\377"
 213      000000FF 
 213      FFFFFFFF 
 213      FF
 214 01b0 FF000000 		.ascii	"\377\000\000\000\000\000\000\000\000\000\017\017\017"
 214      00000000 
 214      00000F0F 
 214      0F
 215 01bd 0F0F0F0F 		.ascii	"\017\017\017\017\017\000\000\000\000\377\377\377\377"
 215      0F000000 
 215      00FFFFFF 
 215      FF
 216 01ca FFFFFFFF 		.ascii	"\377\377\377\377\000\000\000\000\000\377\377\377\377"
 216      00000000 
 216      00FFFFFF 
 216      FF
 217 01d7 FFFFFFFF 		.ascii	"\377\377\377\377\000\000\000\377\377\377\377\377\377"
 217      000000FF 
 217      FFFFFFFF 
 217      FF
 218 01e4 FFFF0000 		.ascii	"\377\377\000\000\000\000\000\377\377\377\377\377\377"
 218      000000FF 
 218      FFFFFFFF 
 218      FF
 219 01f1 FFFF0000 		.ascii	"\377\377\000\000\000\000\000\000\000\000\000\000\000"
 219      00000000 
 219      00000000 
 219      00
 220 01fe 00000000 		.ascii	"\000\000\000\000\000\000\000\000\000\000\000\000\000"
 220      00000000 
 220      00000000 
 220      00
 221 020b 00000000 		.ascii	"\000\000\000\000\000\000\000\000\377\377\377\377\377"
 221      00000000 
 221      FFFFFFFF 
 221      FF
 222 0218 FFFF0000 		.ascii	"\377\377\000\000\000\000\000\000\000\000\000\000\000"
 222      00000000 
 222      00000000 
 222      00
 223 0225 00000000 		.ascii	"\000\000\000\000\000\377\377\377\377\377\377\377\000"
 223      00FFFFFF 
ARM GAS  C:\Users\no\AppData\Local\Temp\ccG7wc6f.s 			page 15


 223      FFFFFFFF 
 223      00
 224 0232 00000000 		.ascii	"\000\000\000\000\000\000\000\000\340\360\360\360\360"
 224      00000000 
 224      E0F0F0F0 
 224      F0
 225 023f F0F0F000 		.ascii	"\360\360\360\000\000\000\000\177\377\377\377\377\377"
 225      0000007F 
 225      FFFFFFFF 
 225      FF
 226 024c FFFF0000 		.ascii	"\377\377\000\000\000\000\000\377\377\377\377\377\377"
 226      000000FF 
 226      FFFFFFFF 
 226      FF
 227 0259 FFFF0000 		.ascii	"\377\377\000\000\000\377\377\377\377\377\377\377\377"
 227      00FFFFFF 
 227      FFFFFFFF 
 227      FF
 228 0266 00000000 		.ascii	"\000\000\000\000\000\377\377\377\377\377\377\377\377"
 228      00FFFFFF 
 228      FFFFFFFF 
 228      FF
 229 0273 00000000 		.ascii	"\000\000\000\000\000\000\000\000\000\000\000\000\000"
 229      00000000 
 229      00000000 
 229      00
 230 0280 00000000 		.ascii	"\000\000\000\000\000\000\000\000\000\000\000\000\000"
 230      00000000 
 230      00000000 
 230      00
 231 028d 00000000 		.ascii	"\000\000\000\000\000\000\377\377\377\377\377\377\377"
 231      0000FFFF 
 231      FFFFFFFF 
 231      FF
 232 029a 00000000 		.ascii	"\000\000\000\000\000\000\000\000\000\000\000\000\000"
 232      00000000 
 232      00000000 
 232      00
 233 02a7 000000FF 		.ascii	"\000\000\000\377\377\377\377\377\377\377\000\000\000"
 233      FFFFFFFF 
 233      FFFF0000 
 233      00
 234 02b4 00000000 		.ascii	"\000\000\000\000\000\000\037???????\000\000\000\000"
 234      00001F3F 
 234      3F3F3F3F 
 234      3F3F0000 
 234      0000
 235 02c6 07FFFFFF 		.ascii	"\007\377\377\377\377\377\377\377\000\000\000\000\000"
 235      FFFFFFFF 
 235      00000000 
 235      00
 236 02d3 FFFFFFFF 		.ascii	"\377\377\377\377\377\377\377\377\000\000\000\377\377"
 236      FFFFFFFF 
 236      000000FF 
 236      FF
 237 02e0 FFFFFFFF 		.ascii	"\377\377\377\377\377\377\000\000\000\000\000\377\377"
 237      FFFF0000 
ARM GAS  C:\Users\no\AppData\Local\Temp\ccG7wc6f.s 			page 16


 237      000000FF 
 237      FF
 238 02ed FFFFFFFF 		.ascii	"\377\377\377\377\377\377\000\000\000\000\000\000\000"
 238      FFFF0000 
 238      00000000 
 238      00
 239 02fa 00000000 		.ascii	"\000\000\000\000\000\000\000\000\000\000\000\000\000"
 239      00000000 
 239      00000000 
 239      00
 240 0307 00000000 		.ascii	"\000\000\000\000\000\000\000\000\000\000\000\000\377"
 240      00000000 
 240      00000000 
 240      FF
 241 0314 FFFFFFFF 		.ascii	"\377\377\377\377\377\377\000\000\000\000\000\000\000"
 241      FFFF0000 
 241      00000000 
 241      00
 242 0321 00000000 		.ascii	"\000\000\000\000\000\000\000\000\000\377\377\377\377"
 242      00000000 
 242      00FFFFFF 
 242      FF
 243 032e FFFFFF00 		.ascii	"\377\377\377\000\000\000\000\000\000\000\000\000\000"
 243      00000000 
 243      00000000 
 243      00
 244 033b 00000000 		.ascii	"\000\000\000\000\000\000\000\000\000\000\000\000?\377"
 244      00000000 
 244      00000000 
 244      3FFF
 245 0349 FFFFFFFF 		.ascii	"\377\377\377\377\377\374\370\370\370\370\377\377\377"
 245      FFFCF8F8 
 245      F8F8FFFF 
 245      FF
 246 0356 FFFFFF7F 		.ascii	"\377\377\377\177\017\000\000\000\017\177\377\377\377"
 246      0F000000 
 246      0F7FFFFF 
 246      FF
 247 0363 FFFFFFF8 		.ascii	"\377\377\377\370\370\370\370\374\377\377\377\377\377"
 247      F8F8F8FC 
 247      FFFFFFFF 
 247      FF
 248 0370 FF7F0700 		.ascii	"\377\177\007\000\000\000\000\000\000\000\000\000\000"
 248      00000000 
 248      00000000 
 248      00
 249 037d 00000000 		.ascii	"\000\000\000\000\000\000\000\000\000\000\000\000\000"
 249      00000000 
 249      00000000 
 249      00
 250 038a 00000000 		.ascii	"\000\000\000\000\000\000\000\000\000\017\017\017\017"
 250      00000000 
 250      000F0F0F 
 250      0F
 251 0397 0F0F0F00 		.ascii	"\017\017\017\000\000\000\000\000\000\000\000\000\000"
 251      00000000 
 251      00000000 
ARM GAS  C:\Users\no\AppData\Local\Temp\ccG7wc6f.s 			page 17


 251      00
 252 03a4 00000000 		.ascii	"\000\000\000\000\000\000\017\017\017\017\017\017\017"
 252      00000F0F 
 252      0F0F0F0F 
 252      0F
 253 03b1 00000000 		.ascii	"\000\000\000\000\000\000\000\000\000\000\000\000\000"
 253      00000000 
 253      00000000 
 253      00
 254 03be 00000000 		.ascii	"\000\000\000\000\000\000\000\000\000\000\000\001\003"
 254      00000000 
 254      00000001 
 254      03
 255 03cb 070F0F0F 		.ascii	"\007\017\017\017\037\037\037\037\017\017\007\007\003"
 255      1F1F1F1F 
 255      0F0F0707 
 255      03
 256 03d8 01000000 		.ascii	"\001\000\000\000\000\000\000\000\001\003\007\007\017"
 256      00000000 
 256      01030707 
 256      0F
 257 03e5 0F1F1F1F 		.ascii	"\017\037\037\037\037\037\017\017\007\007\003\000\000"
 257      1F1F0F0F 
 257      07070300 
 257      00
 258 03f2 00000000 		.ascii	"\000\000\000\000\000\000\000\000\000\000\000\000\000"
 258      00000000 
 258      00000000 
 258      00
 259 03ff 00       		.ascii	"\000"
 260              		.global	BMP4
 261              		.section	.data.BMP4,"aw"
 262              		.align	2
 265              	BMP4:
 266 0000 00000000 		.ascii	"\000\000\000\000\300\300\300\200\200\000\200\200\300"
 266      C0C0C080 
 266      80008080 
 266      C0
 267 000d C0C0C0C0 		.ascii	"\300\300\300\300\200\000\000\200\300\300\300\300\300"
 267      80000080 
 267      C0C0C0C0 
 267      C0
 268 001a 80800080 		.ascii	"\200\200\000\200\200\300\300\300\300\300\200\000\000"
 268      80C0C0C0 
 268      C0C08000 
 268      00
 269 0027 8080C0C0 		.ascii	"\200\200\300\300\300\300\200\200\000\000\200\300\300"
 269      C0C08080 
 269      000080C0 
 269      C0
 270 0034 C0C0C080 		.ascii	"\300\300\300\200\000\000\200\200\300\300\300\300\200"
 270      00008080 
 270      C0C0C0C0 
 270      80
 271 0041 80000080 		.ascii	"\200\000\000\200\200\300\300\300\300\200\000\000\000"
 271      80C0C0C0 
 271      C0800000 
ARM GAS  C:\Users\no\AppData\Local\Temp\ccG7wc6f.s 			page 18


 271      00
 272 004e 8080C0C0 		.ascii	"\200\200\300\300\300\200\200\000\000\200\200\300\300"
 272      C0808000 
 272      008080C0 
 272      C0
 273 005b C0808000 		.ascii	"\300\200\200\000\000\000\200\200\300\300\300\200\200"
 273      00008080 
 273      C0C0C080 
 273      80
 274 0068 00000080 		.ascii	"\000\000\000\200\200\300\300\300\200\200\000\000\000"
 274      80C0C0C0 
 274      80800000 
 274      00
 275 0075 8080C0C0 		.ascii	"\200\200\300\300\000\000\000\000\000\000\000\000\000"
 275      00000000 
 275      00000000 
 275      00
 276 0082 00000000 		.ascii	"\000\000\000\000\000\001\007\007\007\001\000\000\000"
 276      00010707 
 276      07010000 
 276      00
 277 008f 00010307 		.ascii	"\000\001\003\007\007\003\001\000\000\000\001\001\007"
 277      07030100 
 277      00000101 
 277      07
 278 009c 07070101 		.ascii	"\007\007\001\001\000\000\000\001\003\007\007\003\001"
 278      00000001 
 278      03070703 
 278      01
 279 00a9 00000001 		.ascii	"\000\000\000\001\001\007\007\007\003\001\000\000\000"
 279      01070707 
 279      03010000 
 279      00
 280 00b6 01030707 		.ascii	"\001\003\007\007\003\001\001\200\200\001\001\003\007"
 280      03010180 
 280      80010103 
 280      07
 281 00c3 07030101 		.ascii	"\007\003\001\001\000\001\001\003\007\016\007\003\001"
 281      00010103 
 281      070E0703 
 281      01
 282 00d0 01000101 		.ascii	"\001\000\001\001\003\007\007\003\001\001\001\001\001"
 282      03070703 
 282      01010101 
 282      01
 283 00dd 03070E07 		.ascii	"\003\007\016\007\003\001\001\001\001\001\003\007\016"
 283      03010101 
 283      01010307 
 283      0E
 284 00ea 07030101 		.ascii	"\007\003\001\001\001\001\001\003\017\016\007\003\001"
 284      01010103 
 284      0F0E0703 
 284      01
 285 00f7 01010000 		.ascii	"\001\001\000\000\000\000\000\000\000\000\000\000\000"
 285      00000000 
 285      00000000 
 285      00
ARM GAS  C:\Users\no\AppData\Local\Temp\ccG7wc6f.s 			page 19


 286 0104 00000000 		.ascii	"\000\000\000\000\000\000\000\000\000\000\000\000\000"
 286      00000000 
 286      00000000 
 286      00
 287 0111 00000000 		.ascii	"\000\000\000\000\000\000\000\000\000\000\000\000\000"
 287      00000000 
 287      00000000 
 287      00
 288 011e 00000000 		.ascii	"\000\000\000\000\000\000\000\000\000\000\000\000\000"
 288      00000000 
 288      00000000 
 288      00
 289 012b 00000000 		.ascii	"\000\000\000\000\000\000\000\000\200\200\000\000\034"
 289      00000000 
 289      80800000 
 289      1C
 290 0138 3EBCC0E0 		.ascii	">\274\300\340\340\357\357\340\340\300\270>>\000\000"
 290      E0EFEFE0 
 290      E0C0B83E 
 290      3E0000
 291 0147 00000000 		.ascii	"\000\000\000\000\000\000\000\000\000\000\000\000\000"
 291      00000000 
 291      00000000 
 291      00
 292 0154 00000000 		.ascii	"\000\000\000\000\000\000\000\000\000\000\000\000\000"
 292      00000000 
 292      00000000 
 292      00
 293 0161 00000000 		.ascii	"\000\000\000\000\000\000\000\000\000\000\000\000\000"
 293      00000000 
 293      00000000 
 293      00
 294 016e 00000000 		.ascii	"\000\000\000\000\000\000\000\000\000\000\000\000\000"
 294      00000000 
 294      00000000 
 294      00
 295 017b 00000000 		.ascii	"\000\000\000\000\000\000\000\000\000\000\000\000\376"
 295      00000000 
 295      00000000 
 295      FE
 296 0188 FCFC8C8C 		.ascii	"\374\374\214\214\214\254\354\354\214\234\234\234\374"
 296      8CACECEC 
 296      8C9C9C9C 
 296      FC
 297 0195 FC000000 		.ascii	"\374\000\000\000\000\000\000\000\000\000\000\000\000"
 297      00000000 
 297      00000000 
 297      00
 298 01a2 00000000 		.ascii	"\000\000\000\000\000\000\000\000\000\000\000\000\000"
 298      00000000 
 298      00000000 
 298      00
 299 01af 00000000 		.ascii	"\000\000\000\000\007\007\317\370\376\377\377\377\377"
 299      0707CFF8 
 299      FEFFFFFF 
 299      FF
 300 01bc FFFFFFFF 		.ascii	"\377\377\377\377\377\377\377\377\376\370\317\017\007"
ARM GAS  C:\Users\no\AppData\Local\Temp\ccG7wc6f.s 			page 20


 300      FFFFFFFF 
 300      FEF8CF0F 
 300      07
 301 01c9 07000000 		.ascii	"\007\000\000\000\000\000\300\360\370x888\370\360\300"
 301      0000C0F0 
 301      F8783838 
 301      38F8F0C0 
 302 01d9 0080E0F0 		.ascii	"\000\200\340\360x888\370\360\300\000\000\340\36088\360"
 302      78383838 
 302      F8F0C000 
 302      00E0F038 
 302      38F0
 303 01eb E00080C0 		.ascii	"\340\000\200\300\340\340\340\340\340\300\300\200\000"
 303      E0E0E0E0 
 303      E0C0C080 
 303      00
 304 01f8 00000000 		.ascii	"\000\000\000\000\000\000\000\000\000\000\000\000\000"
 304      00000000 
 304      00000000 
 304      00
 305 0205 0000FFFF 		.ascii	"\000\000\377\377\377\273\373\373\371\377\377\373\373"
 305      FFBBFBFB 
 305      F9FFFFFB 
 305      FB
 306 0212 BB3BFFFF 		.ascii	"\273;\377\377\000\00088888\030\030\03088888888888\000"
 306      00003838 
 306      38383818 
 306      18183838 
 306      38383838 
 307 022c 00000000 		.ascii	"\000\000\000\000\000\007\007\007\007\037\377\377\377"
 307      00070707 
 307      071FFFFF 
 307      FF
 308 0239 FFFFFFFF 		.ascii	"\377\377\377\377\377\377\377\377\377\377\377\377\377"
 308      FFFFFFFF 
 308      FFFFFFFF 
 308      FF
 309 0246 3F06070F 		.ascii	"?\006\007\017\007\000\000\000\000\007\007\003\000\000"
 309      07000000 
 309      00070703 
 309      0000
 310 0254 80E0F87F 		.ascii	"\200\340\370\177\037\000\207\317\377\374xpx\377\337"
 310      1F0087CF 
 310      FFFC7870 
 310      78FFDF
 311 0263 8F000001 		.ascii	"\217\000\000\001\003\007\007\007\375\377?\003\001\000"
 311      03070707 
 311      FDFF3F03 
 311      0100
 312 0271 00000101 		.ascii	"\000\000\001\001\007\007\006\000\000\000\000\000\000"
 312      07070600 
 312      00000000 
 312      00
 313 027e 00000000 		.ascii	"\000\000\000\000\000\000\000\000\200\377\377\0078??"
 313      00000000 
 313      80FFFF07 
 313      383F3F
ARM GAS  C:\Users\no\AppData\Local\Temp\ccG7wc6f.s 			page 21


 314 028d 31313131 		.ascii	"1111??\000\377\377\000\000\000\000\000\000\000\000\000"
 314      3F3F00FF 
 314      FF000000 
 314      00000000 
 314      0000
 315 029f 00000000 		.ascii	"\000\000\000\000\000\000\000\000\000\000\000\000\000"
 315      00000000 
 315      00000000 
 315      00
 316 02ac 00000000 		.ascii	"\000\000\000\000\000\000\000\017\017\007\000\303\347"
 316      0000000F 
 316      0F0700C3 
 316      E7
 317 02b9 EF1F3F3F 		.ascii	"\357\037??\277\277??\037\317\357\303\001\007\017\017"
 317      BFBF3F3F 
 317      1FCFEFC3 
 317      01070F0F 
 318 02c9 0E000000 		.ascii	"\016\000\000\000\000\000\200\340\360\374\337\317\307"
 318      000080E0 
 318      F0FCDFCF 
 318      C7
 319 02d6 C1C0C0C0 		.ascii	"\301\300\300\300\177\377\361\300\200\200\300\341\377"
 319      7FFFF1C0 
 319      8080C0E1 
 319      FF
 320 02e3 7F1E0000 		.ascii	"\177\036\000\000\000\000\000\000\037\177\376\340\300"
 320      00000000 
 320      1F7FFEE0 
 320      C0
 321 02f0 80808080 		.ascii	"\200\200\200\200\300\360\360p\000\000\000\000\000\000"
 321      C0F0F070 
 321      00000000 
 321      0000
 322 02fe 00000000 		.ascii	"\000\000\000\000\000\000\000\000\007\007\003\000\000"
 322      00000000 
 322      07070300 
 322      00
 323 030b 00000000 		.ascii	"\000\000\000\000\000\000\003\007\007\007\007\000\000"
 323      00000307 
 323      07070700 
 323      00
 324 0318 00000000 		.ascii	"\000\000\000\000\000\000\000\000\000\000\000\000\000"
 324      00000000 
 324      00000000 
 324      00
 325 0325 00000000 		.ascii	"\000\000\000\000\000\000\000\000\000\000\000\000\000"
 325      00000000 
 325      00000000 
 325      00
 326 0332 00000000 		.ascii	"\000\000\000\000\000\003\003\001\000\000\000\017\017"
 326      00030301 
 326      0000000F 
 326      0F
 327 033f 00000001 		.ascii	"\000\000\000\001\003\003\000\000\000\000\000\000\000"
 327      03030000 
 327      00000000 
 327      00
ARM GAS  C:\Users\no\AppData\Local\Temp\ccG7wc6f.s 			page 22


 328 034c 00000101 		.ascii	"\000\000\001\001\001\001\001\001\001\001\001\001\001"
 328      01010101 
 328      01010101 
 328      01
 329 0359 01000001 		.ascii	"\001\000\000\001\003\003\003\003\001\001\000\000\000"
 329      03030303 
 329      01010000 
 329      00
 330 0366 00000000 		.ascii	"\000\000\000\000\000\000\000\000\001\003\003\003\003"
 330      00000000 
 330      01030303 
 330      03
 331 0373 03030100 		.ascii	"\003\003\001\000\000\000\000\000\000\000\000\000\000"
 331      00000000 
 331      00000000 
 331      00
 332 0380 00000000 		.ascii	"\000\000\000\000\000\000\000\000\000\000\000\000\000"
 332      00000000 
 332      00000000 
 332      00
 333 038d 00000000 		.ascii	"\000\000\000\000\000\000\000\000\000\000\000\000\000"
 333      00000000 
 333      00000000 
 333      00
 334 039a 00000000 		.ascii	"\000\000\000\000\000\000\000\000\000\000\000\000\000"
 334      00000000 
 334      00000000 
 334      00
 335 03a7 00000000 		.ascii	"\000\000\000\000\000\000\000\000\000\000\000\000\000"
 335      00000000 
 335      00000000 
 335      00
 336 03b4 00000000 		.ascii	"\000\000\000\000\000\000\000\000\000\000\000\000\000"
 336      00000000 
 336      00000000 
 336      00
 337 03c1 00000000 		.ascii	"\000\000\000\000\000\000\000\000\000\000\000\000\000"
 337      00000000 
 337      00000000 
 337      00
 338 03ce 00000000 		.ascii	"\000\000\000\000\000\000\000\000\000\000\000\000\000"
 338      00000000 
 338      00000000 
 338      00
 339 03db 00000000 		.ascii	"\000\000\000\000\000\000\000\000\000\000\000\000\000"
 339      00000000 
 339      00000000 
 339      00
 340 03e8 00000000 		.ascii	"\000\000\000\000\000\000\000\000\000\000\000\000\000"
 340      00000000 
 340      00000000 
 340      00
 341 03f5 00000000 		.ascii	"\000\000\000\000\000\000\000\000\000\000\000"
 341      00000000 
 341      000000
 342              		.global	BMP5
 343              		.section	.data.BMP5,"aw"
ARM GAS  C:\Users\no\AppData\Local\Temp\ccG7wc6f.s 			page 23


 344              		.align	2
 347              	BMP5:
 348 0000 00000000 		.ascii	"\000\000\000\000\000\000\000\000\000\000\000\000\000"
 348      00000000 
 348      00000000 
 348      00
 349 000d 00000000 		.ascii	"\000\000\000\000\000\000\000\000\000\000\000\200\300"
 349      00000000 
 349      00000080 
 349      C0
 350 001a E0F0F0F0 		.ascii	"\340\360\360\360xxxxxxx\360\360\360\340\300\200\000"
 350      78787878 
 350      787878F0 
 350      F0F0E0C0 
 350      8000
 351 002c 00000000 		.ascii	"\000\000\000\000\360\370\370\370xxxxxxxxxxxxxxxx0\000"
 351      F0F8F8F8 
 351      78787878 
 351      78787878 
 351      78787878 
 352 0046 00000000 		.ascii	"\000\000\000\000\000\300\340\360\360\360\360\370\360"
 352      00C0E0F0 
 352      F0F0F0F8 
 352      F0
 353 0053 F0F0E0C0 		.ascii	"\360\360\340\300\300\340\360\360\360\370\370\360\360"
 353      C0E0F0F0 
 353      F0F8F8F0 
 353      F0
 354 0060 F0E0C080 		.ascii	"\360\340\300\200\000\000\000\000\000\000\000\000\000"
 354      00000000 
 354      00000000 
 354      00
 355 006d 00000000 		.ascii	"\000\000\000\000\000\000\000\000\000\000\000\000\000"
 355      00000000 
 355      00000000 
 355      00
 356 007a 00000000 		.ascii	"\000\000\000\000\000\000\000\000\000\000\000\000\000"
 356      00000000 
 356      00000000 
 356      00
 357 0087 00000000 		.ascii	"\000\000\000\000\000\000\000\000\000\000\000\000\000"
 357      00000000 
 357      00000000 
 357      00
 358 0094 0000007E 		.ascii	"\000\000\000~\377\377\377\201\000\000\000\000\000\000"
 358      FFFFFF81 
 358      00000000 
 358      0000
 359 00a2 00000000 		.ascii	"\000\000\000\000\000\201\377\377\377\377\000\000\000"
 359      0081FFFF 
 359      FFFF0000 
 359      00
 360 00af 00FFFFFF 		.ascii	"\000\377\377\377\377\200\300\300\300\340\340\340\340"
 360      FF80C0C0 
 360      C0E0E0E0 
 360      E0
 361 00bc E0E0C0C0 		.ascii	"\340\340\300\300\300\200\200\000\000\000\000\000\000"
ARM GAS  C:\Users\no\AppData\Local\Temp\ccG7wc6f.s 			page 24


 361      C0808000 
 361      00000000 
 361      00
 362 00c9 001F3FFF 		.ascii	"\000\037?\377\377\377\377\377\377\377\377\377\377\377"
 362      FFFFFFFF 
 362      FFFFFFFF 
 362      FFFF
 363 00d7 FFFFFFFF 		.ascii	"\377\377\377\377\377\377\377\377\377\377\377?\037\000"
 363      FFFFFFFF 
 363      FFFFFF3F 
 363      1F00
 364 00e5 00000000 		.ascii	"\000\000\000\000\000\000\000\000\000\000\000\000\000"
 364      00000000 
 364      00000000 
 364      00
 365 00f2 00000000 		.ascii	"\000\000\000\000\000\000\000\000\000\000\000\000\000"
 365      00000000 
 365      00000000 
 365      00
 366 00ff 00000000 		.ascii	"\000\000\000\000\000\000\000\000\000\000\000\000\000"
 366      00000000 
 366      00000000 
 366      00
 367 010c 00000000 		.ascii	"\000\000\000\000\000\000\000\000\000\000\000\300\361"
 367      00000000 
 367      000000C0 
 367      F1
 368 0119 F3FF7F3F 		.ascii	"\363\377\177?>\036\036\034\034\034\036\036>?\177\377"
 368      3E1E1E1C 
 368      1C1C1E1E 
 368      3E3F7FFF 
 369 0129 F3F1E080 		.ascii	"\363\361\340\200\000\000\000\007\017\017\017\007\003"
 369      00000007 
 369      0F0F0F07 
 369      03
 370 0136 03010101 		.ascii	"\003\001\001\001\001\001\001\001\001\003\007?\377\376"
 370      01010101 
 370      0103073F 
 370      FFFE
 371 0144 FCC00000 		.ascii	"\374\300\000\000\000\000\000\000\000\001\003\007\007"
 371      00000000 
 371      00010307 
 371      07
 372 0151 0F1F1F3F 		.ascii	"\017\037\037??\177\177\177?\037\037\017\007\007\003"
 372      3F7F7F7F 
 372      3F1F1F0F 
 372      070703
 373 0160 01000000 		.ascii	"\001\000\000\000\000\000\000\000\000\000\000\000\000"
 373      00000000 
 373      00000000 
 373      00
 374 016d 00000000 		.ascii	"\000\000\000\000\000\000\000\000\000\000\000\000\000"
 374      00000000 
 374      00000000 
 374      00
 375 017a 00000000 		.ascii	"\000\000\000\000\000\000\000\000\000\000\000\000\000"
 375      00000000 
ARM GAS  C:\Users\no\AppData\Local\Temp\ccG7wc6f.s 			page 25


 375      00000000 
 375      00
 376 0187 00000000 		.ascii	"\000\000\000\000\000\000\000\000\000\000\000\000\000"
 376      00000000 
 376      00000000 
 376      00
 377 0194 00007FFF 		.ascii	"\000\000\177\377\377\377\300\200\000\000\000\000\000"
 377      FFFFC080 
 377      00000000 
 377      00
 378 01a1 00000000 		.ascii	"\000\000\000\000\000\000\200\300\377\377\377\177\000"
 378      000080C0 
 378      FFFFFF7F 
 378      00
 379 01ae 0070F0F0 		.ascii	"\000p\360\360\340\300\200\000\000\000\000\000\000\000"
 379      E0C08000 
 379      00000000 
 379      0000
 380 01bc 00000080 		.ascii	"\000\000\000\200\300\360\377\377\177\017\000\000\000"
 380      C0F0FFFF 
 380      7F0F0000 
 380      00
 381 01c9 00F8F8F8 		.ascii	"\000\370\370\370```\340\300\340\340```\340\300\340\340"
 381      606060E0 
 381      C0E0E060 
 381      6060E0C0 
 381      E0E0
 382 01db 6060E0E0 		.ascii	"``\340\340``\340\340\000\000\000\000\000\000\000\000"
 382      6060E0E0 
 382      00000000 
 382      00000000 
 383 01eb 00000000 		.ascii	"\000\000\000\000\000\000\000\000\000\000\000\000\000"
 383      00000000 
 383      00000000 
 383      00
 384 01f8 00000000 		.ascii	"\000\000\000\000\000\000\000\000\000\000\000\000\000"
 384      00000000 
 384      00000000 
 384      00
 385 0205 00000000 		.ascii	"\000\000\000\000\000\000\000\000\000\000\000\000\000"
 385      00000000 
 385      00000000 
 385      00
 386 0212 00000000 		.ascii	"\000\000\000\000\000\000\001\003\007\007\017\017\017"
 386      00000103 
 386      07070F0F 
 386      0F
 387 021f 0E0E0E0E 		.ascii	"\016\016\016\016\016\017\017\017\007\007\003\003\000"
 387      0E0F0F0F 
 387      07070303 
 387      00
 388 022c 00000000 		.ascii	"\000\000\000\000\000\001\003\007\007\017\017\017\016"
 388      00010307 
 388      070F0F0F 
 388      0E
 389 0239 0E0E0E0F 		.ascii	"\016\016\016\017\017\017\007\007\003\001\000\000\000"
 389      0F0F0707 
ARM GAS  C:\Users\no\AppData\Local\Temp\ccG7wc6f.s 			page 26


 389      03010000 
 389      00
 390 0246 00000000 		.ascii	"\000\000\000\000\017\017\017\014\014\014\017\007??\014"
 390      0F0F0F0C 
 390      0C0C0F07 
 390      3F3F0C
 391 0255 0C0C0F07 		.ascii	"\014\014\017\007\017\017\000\000\017\017\000\000\017"
 391      0F0F0000 
 391      0F0F0000 
 391      0F
 392 0262 0F000000 		.ascii	"\017\000\000\000\000\000\000\000\000\000\000\000\000"
 392      00000000 
 392      00000000 
 392      00
 393 026f 00000000 		.ascii	"\000\000\000\000\000\000\000\000\000\000\000\000\000"
 393      00000000 
 393      00000000 
 393      00
 394 027c 00000000 		.ascii	"\000\000\000\000\000\000\000\000\000\000\000\000\000"
 394      00000000 
 394      00000000 
 394      00
 395 0289 00000000 		.ascii	"\000\000\000\000\000\000\000\000\000\000\000\000\000"
 395      00000000 
 395      00000000 
 395      00
 396 0296 00000000 		.ascii	"\000\000\000\000\000\000\000\000\000\000\000\000\000"
 396      00000000 
 396      00000000 
 396      00
 397 02a3 00000000 		.ascii	"\000\000\000\000\300\340p\360\340\200\000\000\000\000"
 397      C0E070F0 
 397      E0800000 
 397      0000
 398 02b1 00000080 		.ascii	"\000\000\000\200\340\3708\014\034x\360\200\000\000\000"
 398      E0F8380C 
 398      1C78F080 
 398      000000
 399 02c0 00000000 		.ascii	"\000\000\000\000\000\000\300\340p8p\360\300\000\000"
 399      0000C0E0 
 399      703870F0 
 399      C00000
 400 02cf 00000000 		.ascii	"\000\000\000\000\000\000\000\200\300\300\000\000\000"
 400      00000080 
 400      C0C00000 
 400      00
 401 02dc 00000000 		.ascii	"\000\000\000\000\000\000\000\000\000\000\000\000\000"
 401      00000000 
 401      00000000 
 401      00
 402 02e9 00000000 		.ascii	"\000\000\000\000\000\000\000\000\000\000\000\000\000"
 402      00000000 
 402      00000000 
 402      00
 403 02f6 00000000 		.ascii	"\000\000\000\000\000\000\000\000\000\000\000\000\000"
 403      00000000 
 403      00000000 
ARM GAS  C:\Users\no\AppData\Local\Temp\ccG7wc6f.s 			page 27


 403      00
 404 0303 00000000 		.ascii	"\000\000\000\000\000\000\000\000\000\000\000\000\000"
 404      00000000 
 404      00000000 
 404      00
 405 0310 00000000 		.ascii	"\000\000\000\000\000\000\000\000\000\000\000\000\000"
 405      00000000 
 405      00000000 
 405      00
 406 031d 00000000 		.ascii	"\000\000\000\000\000\300\300p<\037\007\000\000\000\017"
 406      00C0C070 
 406      3C1F0700 
 406      00000F
 407 032c FFF88000 		.ascii	"\377\370\200\000\000\200\360\374\037\003\000\000\000"
 407      0080F0FC 
 407      1F030000 
 407      00
 408 0339 0000031F 		.ascii	"\000\000\003\037\376\360\200\000\000\000\300\370\177"
 408      FEF08000 
 408      0000C0F8 
 408      7F
 409 0346 0F010000 		.ascii	"\017\001\000\000\000\001\017\177\370\300\000\000\000"
 409      00010F7F 
 409      F8C00000 
 409      00
 410 0353 C0F87F0F 		.ascii	"\300\370\177\017\001\000\000\000\000\000\000\000\000"
 410      01000000 
 410      00000000 
 410      00
 411 0360 00000000 		.ascii	"\000\000\000\000\000\000\000\000\000\000\000\000\000"
 411      00000000 
 411      00000000 
 411      00
 412 036d 00000000 		.ascii	"\000\000\000\000\000\000\000\000\000\000\000\000\000"
 412      00000000 
 412      00000000 
 412      00
 413 037a 00000000 		.ascii	"\000\000\000\000\000\000\000\000\000\000\000\000\000"
 413      00000000 
 413      00000000 
 413      00
 414 0387 00000000 		.ascii	"\000\000\000\000\000\000\000\000\000\000\000\000\000"
 414      00000000 
 414      00000000 
 414      00
 415 0394 00000000 		.ascii	"\000\000\000\000\000\000\000\000\000\000\000\000\000"
 415      00000000 
 415      00000000 
 415      00
 416 03a1 00000000 		.ascii	"\000\000\000\000\000\000\000\000\000\000\000\001\017"
 416      00000000 
 416      00000001 
 416      0F
 417 03ae 3F703E1F 		.ascii	"?p>\037\003\000\000\000\000\000\000\000\000\000\000"
 417      03000000 
 417      00000000 
 417      000000
ARM GAS  C:\Users\no\AppData\Local\Temp\ccG7wc6f.s 			page 28


 418 03bd 00073F7C 		.ascii	"\000\007?|x?\017\001\000\000\000\000\000\000\000\000"
 418      783F0F01 
 418      00000000 
 418      00000000 
 419 03cd 00030F3E 		.ascii	"\000\003\017>p|?\007\000\000\000\000\000\000\000\000"
 419      707C3F07 
 419      00000000 
 419      00000000 
 420 03dd 00000000 		.ascii	"\000\000\000\000\000\000\000\000\000\000\000\000\000"
 420      00000000 
 420      00000000 
 420      00
 421 03ea 00000000 		.ascii	"\000\000\000\000\000\000\000\000\000\000\000\000\000"
 421      00000000 
 421      00000000 
 421      00
 422 03f7 00000000 		.ascii	"\000\000\000\000\000\000\000\000\000"
 422      00000000 
 422      00
 423              		.global	BMP6
 424              		.section	.data.BMP6,"aw"
 425              		.align	2
 428              	BMP6:
 429 0000 00000000 		.ascii	"\000\000\000\000\000\000\000\000\000\000\000\000\000"
 429      00000000 
 429      00000000 
 429      00
 430 000d 00000000 		.ascii	"\000\000\000\000\000\000\000\000\000\000\000\000\000"
 430      00000000 
 430      00000000 
 430      00
 431 001a 00000000 		.ascii	"\000\000\000\000\000\000\000\000\000\000\000\000\000"
 431      00000000 
 431      00000000 
 431      00
 432 0027 00000000 		.ascii	"\000\000\000\000\000\000\000\200\200\200\300\300``0"
 432      00000080 
 432      8080C0C0 
 432      606030
 433 0036 30101818 		.ascii	"0\020\030\030\030\010\010\014\014\014\010\010\010\030"
 433      1808080C 
 433      0C0C0808 
 433      0818
 434 0044 18181810 		.ascii	"\030\030\030\02000  ``@\300\200\200\200\000\000\000"
 434      30302020 
 434      606040C0 
 434      80808000 
 434      0000
 435 0056 00000000 		.ascii	"\000\000\000\000\000\000\000\000\000\000\000\000\000"
 435      00000000 
 435      00000000 
 435      00
 436 0063 00000000 		.ascii	"\000\000\000\000\000\000\000\000\000\000\000\000\000"
 436      00000000 
 436      00000000 
 436      00
 437 0070 00000000 		.ascii	"\000\000\000\000\000\000\000\000\000\000\000\000\000"
ARM GAS  C:\Users\no\AppData\Local\Temp\ccG7wc6f.s 			page 29


 437      00000000 
 437      00000000 
 437      00
 438 007d 00000000 		.ascii	"\000\000\000\000\000\000\000\000\000\000\000\000\000"
 438      00000000 
 438      00000000 
 438      00
 439 008a 00000000 		.ascii	"\000\000\000\000\000\000\000\000\000\000\000\000\000"
 439      00000000 
 439      00000000 
 439      00
 440 0097 00000000 		.ascii	"\000\000\000\000\000\000\000\000\000\000\000\000\000"
 440      00000000 
 440      00000000 
 440      00
 441 00a4 C0E03018 		.ascii	"\300\3400\030\014\006\002\003\003\001\001\001\001\000"
 441      0C060203 
 441      03010101 
 441      0100
 442 00b2 80C0C080 		.ascii	"\200\300\300\200\200\000\000\000\000\000\000\000\000"
 442      80000000 
 442      00000000 
 442      00
 443 00bf 00000000 		.ascii	"\000\000\000\000\000\000\000\000\000\000\000\000\000"
 443      00000000 
 443      00000000 
 443      00
 444 00cc 00000000 		.ascii	"\000\000\000\000\000\001\001\003\003\006\014\014\030"
 444      00010103 
 444      03060C0C 
 444      18
 445 00d9 F0E08000 		.ascii	"\360\340\200\000\000\000\000\000\000\000\000\000\000"
 445      00000000 
 445      00000000 
 445      00
 446 00e6 00000000 		.ascii	"\000\000\000\000\000\000\000\000\000\000\000\000\000"
 446      00000000 
 446      00000000 
 446      00
 447 00f3 00000000 		.ascii	"\000\000\000\000\000\000\000\000\000\000\000\000\000"
 447      00000000 
 447      00000000 
 447      00
 448 0100 00000000 		.ascii	"\000\000\000\000\000\000\000\000\000\000\000\000\000"
 448      00000000 
 448      00000000 
 448      00
 449 010d 00000000 		.ascii	"\000\000\000\000\000\000\000\000\000\000\000\000\000"
 449      00000000 
 449      00000000 
 449      00
 450 011a 00000000 		.ascii	"\000\000\000\000\000\000\000\000\000\374\377\003\000"
 450      00000000 
 450      00FCFF03 
 450      00
 451 0127 0080C0C0 		.ascii	"\000\200\300\300\300\340\360\360\370\374\376\377\377"
 451      C0E0F0F0 
ARM GAS  C:\Users\no\AppData\Local\Temp\ccG7wc6f.s 			page 30


 451      F8FCFEFF 
 451      FF
 452 0134 FFFFFFFF 		.ascii	"\377\377\377\377\377\377\377\377\376\376\376\376\376"
 452      FFFFFFFF 
 452      FEFEFEFE 
 452      FE
 453 0141 FEFEFCFC 		.ascii	"\376\376\374\374\374\374\374\374\374\374\374\374\374"
 453      FCFCFCFC 
 453      FCFCFCFC 
 453      FC
 454 014e FCFCFCFC 		.ascii	"\374\374\374\374\374\370\360\000\000\000\000\300\377"
 454      FCF8F000 
 454      000000C0 
 454      FF
 455 015b 3F000000 		.ascii	"?\000\000\000\000\000\000\000\000\000\000\000\000\000"
 455      00000000 
 455      00000000 
 455      0000
 456 0169 00000000 		.ascii	"\000\000\000\000\000\000\000\000\000\000\000\000\000"
 456      00000000 
 456      00000000 
 456      00
 457 0176 00000000 		.ascii	"\000\000\000\000\000\000\000\000\000\000\000\000\000"
 457      00000000 
 457      00000000 
 457      00
 458 0183 00000000 		.ascii	"\000\000\000\000\000\000\000\000\000\000\000\000\000"
 458      00000000 
 458      00000000 
 458      00
 459 0190 00000000 		.ascii	"\000\000\000\000\000\000\000\000\000\000\000\000\000"
 459      00000000 
 459      00000000 
 459      00
 460 019d 00000000 		.ascii	"\000\000\000\000\000\000\003\037|\340\237o\377\377\367"
 460      0000031F 
 460      7CE09F6F 
 460      FFFFF7
 461 01ac FFFF1F1F 		.ascii	"\377\377\037\037\037\377\377\377\377\367\377\357_\277"
 461      1FFFFFFF 
 461      FFF7FFEF 
 461      5FBF
 462 01ba FFFFFFBF 		.ascii	"\377\377\377\277_\357\377\367\377\377\377\277\037\037"
 462      5FEFFFF7 
 462      FFFFFFBF 
 462      1F1F
 463 01c8 BFFFFFF7 		.ascii	"\277\377\377\367\367\377o\237\377\377\337\337\377\310"
 463      F7FF6F9F 
 463      FFFFDFDF 
 463      FFC8
 464 01d6 E0F8CE87 		.ascii	"\340\370\316\207\001\000\000\000\000\000\000\000\000"
 464      01000000 
 464      00000000 
 464      00
 465 01e3 00000000 		.ascii	"\000\000\000\000\000\000\000\000\000\000\000\000\000"
 465      00000000 
 465      00000000 
ARM GAS  C:\Users\no\AppData\Local\Temp\ccG7wc6f.s 			page 31


 465      00
 466 01f0 00000000 		.ascii	"\000\000\000\000\000\000\000\000\000\000\000\000\000"
 466      00000000 
 466      00000000 
 466      00
 467 01fd 00000000 		.ascii	"\000\000\000\000\000\000\000\000\000\000\000\000\000"
 467      00000000 
 467      00000000 
 467      00
 468 020a 00000000 		.ascii	"\000\000\000\000\000\000\000\000\000\000\000\000\000"
 468      00000000 
 468      00000000 
 468      00
 469 0217 00000000 		.ascii	"\000\000\000\000\000\000\000\000\000\000\000\000\000"
 469      00000000 
 469      00000000 
 469      00
 470 0224 00000001 		.ascii	"\000\000\000\001\007\037?\177\177\377\377\377\377\377"
 470      071F3F7F 
 470      7FFFFFFF 
 470      FFFF
 471 0232 FFFFFFFF 		.ascii	"\377\377\377\377\277\276??????\277\276\377\377\377\377"
 471      BFBE3F3F 
 471      3F3F3F3F 
 471      BFBEFFFF 
 471      FFFF
 472 0244 FFFFFFFF 		.ascii	"\377\377\377\377\377\377\377\377\377\376\376\177\177"
 472      FFFFFFFF 
 472      FFFEFE7F 
 472      7F
 473 0251 3F1F1F1F 		.ascii	"?\037\037\037\017\017\007\003\000\000\000\000\000\000"
 473      0F0F0703 
 473      00000000 
 473      0000
 474 025f 00000000 		.ascii	"\000\000\000\000\000\000\000\000\000\000\000\000\000"
 474      00000000 
 474      00000000 
 474      00
 475 026c 00000000 		.ascii	"\000\000\000\000\000\000\000\000\000\000\000\000\000"
 475      00000000 
 475      00000000 
 475      00
 476 0279 00000000 		.ascii	"\000\000\000\000\000\000\000\000\000\000\000\000\000"
 476      00000000 
 476      00000000 
 476      00
 477 0286 00000000 		.ascii	"\000\000\000\000\000\000\000\000\000\000\000\000\000"
 477      00000000 
 477      00000000 
 477      00
 478 0293 00000000 		.ascii	"\000\000\000\000\000\000\000\000\000\000\000\000\000"
 478      00000000 
 478      00000000 
 478      00
 479 02a0 00000000 		.ascii	"\000\000\000\000\000\000\000\000\000\000\000\000\000"
 479      00000000 
 479      00000000 
ARM GAS  C:\Users\no\AppData\Local\Temp\ccG7wc6f.s 			page 32


 479      00
 480 02ad 00010103 		.ascii	"\000\001\001\003\003\003\003\007\007\007\007\007\007"
 480      03030307 
 480      07070707 
 480      07
 481 02ba 070F0F0F 		.ascii	"\007\017\017\017\007\007\007\007\007\007\007\007\007"
 481      07070707 
 481      07070707 
 481      07
 482 02c7 03030303 		.ascii	"\003\003\003\003\001\001\000\000\000\000\000\000\000"
 482      01010000 
 482      00000000 
 482      00
 483 02d4 00000000 		.ascii	"\000\000\000\000\000\000\000\000\000\000\000\000\000"
 483      00000000 
 483      00000000 
 483      00
 484 02e1 00000000 		.ascii	"\000\000\000\000\000\000\000\000\000\000\000\000\000"
 484      00000000 
 484      00000000 
 484      00
 485 02ee 00000000 		.ascii	"\000\000\000\000\000\000\000\000\000\000\000\000\000"
 485      00000000 
 485      00000000 
 485      00
 486 02fb 00000000 		.ascii	"\000\000\000\000\000\000\000\000\000\000\000\000\000"
 486      00000000 
 486      00000000 
 486      00
 487 0308 00000000 		.ascii	"\000\000\000\000\000\000\000\000\000\000\000\000\000"
 487      00000000 
 487      00000000 
 487      00
 488 0315 0000001C 		.ascii	"\000\000\000\034~\376\376\234\230\000\000\000\000\000"
 488      7EFEFE9C 
 488      98000000 
 488      0000
 489 0323 00004848 		.ascii	"\000\000HHH\310\230\230\0200`\300\200\000\000\000\000"
 489      48C89898 
 489      103060C0 
 489      80000000 
 489      00
 490 0334 00000000 		.ascii	"\000\000\000\000\000\000\000\000\000\000\000\000\000"
 490      00000000 
 490      00000000 
 490      00
 491 0341 00000058 		.ascii	"\000\000\000XX\310\354\354\376\270\260\260\260\270\376"
 491      58C8ECEC 
 491      FEB8B0B0 
 491      B0B8FE
 492 0350 ECECEC48 		.ascii	"\354\354\354HH\000\000@X\310\354\354\376\270\260\260"
 492      48000040 
 492      58C8ECEC 
 492      FEB8B0B0 
 493 0360 B0B8FEEE 		.ascii	"\260\270\376\356\354\354HH@\000\000\000\000\000\000"
 493      ECEC4848 
 493      40000000 
ARM GAS  C:\Users\no\AppData\Local\Temp\ccG7wc6f.s 			page 33


 493      000000
 494 036f 00000000 		.ascii	"\000\000\000\000\000\000\000\000\000\000\000\000\000"
 494      00000000 
 494      00000000 
 494      00
 495 037c 00000000 		.ascii	"\000\000\000\000\000\000\000\000\000\000\000\000\000"
 495      00000000 
 495      00000000 
 495      00
 496 0389 00000000 		.ascii	"\000\000\000\000\000\000\000\000\000\000\000\000\000"
 496      00000000 
 496      00000000 
 496      00
 497 0396 00000000 		.ascii	"\000\000\000\000\000\001\003\003\007\016\016\014\034"
 497      00010303 
 497      070E0E0C 
 497      1C
 498 03a3 1C1E1E3E 		.ascii	"\034\036\036>\034\010\000\001\007\016\000\000\007\017"
 498      1C080001 
 498      070E0000 
 498      070F
 499 03b1 04000000 		.ascii	"\004\000\000\000\000\000\000\000\000\000\000\000\000"
 499      00000000 
 499      00000000 
 499      00
 500 03be 00000000 		.ascii	"\000\000\000\000\000\000\000\000\037?444777444778\030"
 500      00000000 
 500      1F3F3434 
 500      34373737 
 500      34343437 
 501 03d5 00000000 		.ascii	"\000\000\000\000\037?444777444778\030\000\000\000\000"
 501      1F3F3434 
 501      34373737 
 501      34343437 
 501      37381800 
 502 03ec 00000000 		.ascii	"\000\000\000\000\000\000\000\000\000\000\000\000\000"
 502      00000000 
 502      00000000 
 502      00
 503 03f9 00000000 		.ascii	"\000\000\000\000\000\000\000"
 503      000000
 504              		.section	.rodata
 505              		.align	2
 506              	.LC0:
 507 0000 73746D33 		.ascii	"stm32f103RC\000"
 507      32663130 
 507      33524300 
 508              		.align	2
 509              	.LC1:
 510 000c D6D0CEC4 		.ascii	"\326\320\316\304\264\256\277\332\262\342\312\324\015"
 510      B4AEBFDA 
 510      B2E2CAD4 
 510      0D
 511 0019 0A456E67 		.ascii	"\012English serial port test\015\012\000"
 511      6C697368 
 511      20736572 
 511      69616C20 
ARM GAS  C:\Users\no\AppData\Local\Temp\ccG7wc6f.s 			page 34


 511      706F7274 
 512              		.section	.text.main,"ax",%progbits
 513              		.align	1
 514              		.global	main
 515              		.arch armv7-m
 516              		.syntax unified
 517              		.thumb
 518              		.thumb_func
 519              		.fpu softvfp
 521              	main:
 522              	.LFB32:
 523              		.file 1 "User/main.c"
   1:User/main.c   **** #include "common.h"
   2:User/main.c   **** #include "sys.h"
   3:User/main.c   **** #include "oled.h"
   4:User/main.c   **** #include "bmp.h"
   5:User/main.c   **** #include "usart.h"
   6:User/main.c   **** 
   7:User/main.c   **** int main (void) {
 524              		.loc 1 7 17
 525              		.cfi_startproc
 526              		@ args = 0, pretend = 0, frame = 8
 527              		@ frame_needed = 1, uses_anonymous_args = 0
 528 0000 80B5     		push	{r7, lr}
 529              	.LCFI0:
 530              		.cfi_def_cfa_offset 8
 531              		.cfi_offset 7, -8
 532              		.cfi_offset 14, -4
 533 0002 84B0     		sub	sp, sp, #16
 534              	.LCFI1:
 535              		.cfi_def_cfa_offset 24
 536 0004 02AF     		add	r7, sp, #8
 537              	.LCFI2:
 538              		.cfi_def_cfa 7, 16
   8:User/main.c   **** 	NVIC_Configuration(); 	 //NVIC2:22 	LED_Init();			     //LED
 539              		.loc 1 8 2
 540 0006 FFF7FEFF 		bl	NVIC_Configuration
   9:User/main.c   **** 	OLED_Init();			       //OLED  
 541              		.loc 1 9 2
 542 000a FFF7FEFF 		bl	OLED_Init
  10:User/main.c   **** 	uart_init(115200);
 543              		.loc 1 10 2
 544 000e 4FF4E130 		mov	r0, #115200
 545 0012 FFF7FEFF 		bl	uart_init
  11:User/main.c   **** 	OLED_Clear(); 
 546              		.loc 1 11 2
 547 0016 FFF7FEFF 		bl	OLED_Clear
  12:User/main.c   **** 	RCC_APB2PeriphClockCmd(RCC_APB2Periph_GPIOC, ENABLE);
 548              		.loc 1 12 2
 549 001a 0121     		movs	r1, #1
 550 001c 1020     		movs	r0, #16
 551 001e FFF7FEFF 		bl	RCC_APB2PeriphClockCmd
  13:User/main.c   **** 	RCC_APB2PeriphClockCmd(RCC_APB2Periph_GPIOA, ENABLE);
 552              		.loc 1 13 2
 553 0022 0121     		movs	r1, #1
 554 0024 0420     		movs	r0, #4
 555 0026 FFF7FEFF 		bl	RCC_APB2PeriphClockCmd
ARM GAS  C:\Users\no\AppData\Local\Temp\ccG7wc6f.s 			page 35


  14:User/main.c   **** 
  15:User/main.c   **** 	GPIO_InitTypeDef GPIO_InitStructure;
  16:User/main.c   **** 	GPIO_InitStructure.GPIO_Mode = GPIO_Mode_Out_PP;
 556              		.loc 1 16 31
 557 002a 1023     		movs	r3, #16
 558 002c FB71     		strb	r3, [r7, #7]
  17:User/main.c   **** 	GPIO_InitStructure.GPIO_Pin = GPIO_Pin_8;
 559              		.loc 1 17 30
 560 002e 4FF48073 		mov	r3, #256
 561 0032 BB80     		strh	r3, [r7, #4]	@ movhi
  18:User/main.c   **** 	GPIO_InitStructure.GPIO_Speed = GPIO_Speed_50MHz;
 562              		.loc 1 18 32
 563 0034 0323     		movs	r3, #3
 564 0036 BB71     		strb	r3, [r7, #6]
  19:User/main.c   **** 	GPIO_Init(GPIOA, &GPIO_InitStructure);
 565              		.loc 1 19 2
 566 0038 3B1D     		adds	r3, r7, #4
 567 003a 1946     		mov	r1, r3
 568 003c 2148     		ldr	r0, .L3
 569 003e FFF7FEFF 		bl	GPIO_Init
  20:User/main.c   **** 
  21:User/main.c   **** 	GPIO_InitStructure.GPIO_Pin = GPIO_Pin_1|GPIO_Pin_2|GPIO_Pin_13;
 570              		.loc 1 21 30
 571 0042 42F20603 		movw	r3, #8198
 572 0046 BB80     		strh	r3, [r7, #4]	@ movhi
  22:User/main.c   **** 	GPIO_Init(GPIOC, &GPIO_InitStructure);
 573              		.loc 1 22 2
 574 0048 3B1D     		adds	r3, r7, #4
 575 004a 1946     		mov	r1, r3
 576 004c 1E48     		ldr	r0, .L3+4
 577 004e FFF7FEFF 		bl	GPIO_Init
  23:User/main.c   **** 	GPIO_WriteBit(GPIOC,GPIO_Pin_2|GPIO_Pin_1,Bit_SET);
 578              		.loc 1 23 2
 579 0052 0122     		movs	r2, #1
 580 0054 0621     		movs	r1, #6
 581 0056 1C48     		ldr	r0, .L3+4
 582 0058 FFF7FEFF 		bl	GPIO_WriteBit
 583              	.L2:
  24:User/main.c   **** 
  25:User/main.c   **** 	while(1) {
  26:User/main.c   **** 		GPIOA->BRR = GPIO_Pin_8;
 584              		.loc 1 26 8 discriminator 1
 585 005c 194B     		ldr	r3, .L3
 586              		.loc 1 26 14 discriminator 1
 587 005e 4FF48072 		mov	r2, #256
 588 0062 5A61     		str	r2, [r3, #20]
  27:User/main.c   **** 		GPIOC->BRR = GPIO_Pin_2|GPIO_Pin_13;
 589              		.loc 1 27 8 discriminator 1
 590 0064 184B     		ldr	r3, .L3+4
 591              		.loc 1 27 14 discriminator 1
 592 0066 42F20402 		movw	r2, #8196
 593 006a 5A61     		str	r2, [r3, #20]
  28:User/main.c   **** 		Delay_ms(50);
 594              		.loc 1 28 3 discriminator 1
 595 006c 3220     		movs	r0, #50
 596 006e FFF7FEFF 		bl	Delay_ms
  29:User/main.c   **** 		GPIOA->BSRR = GPIO_Pin_8;
ARM GAS  C:\Users\no\AppData\Local\Temp\ccG7wc6f.s 			page 36


 597              		.loc 1 29 8 discriminator 1
 598 0072 144B     		ldr	r3, .L3
 599              		.loc 1 29 15 discriminator 1
 600 0074 4FF48072 		mov	r2, #256
 601 0078 1A61     		str	r2, [r3, #16]
  30:User/main.c   **** 		GPIOC->BSRR = GPIO_Pin_2|GPIO_Pin_13;
 602              		.loc 1 30 8 discriminator 1
 603 007a 134B     		ldr	r3, .L3+4
 604              		.loc 1 30 15 discriminator 1
 605 007c 42F20402 		movw	r2, #8196
 606 0080 1A61     		str	r2, [r3, #16]
  31:User/main.c   **** 		Delay_ms(50);	
 607              		.loc 1 31 3 discriminator 1
 608 0082 3220     		movs	r0, #50
 609 0084 FFF7FEFF 		bl	Delay_ms
  32:User/main.c   **** 		OLED_Clear();
 610              		.loc 1 32 3 discriminator 1
 611 0088 FFF7FEFF 		bl	OLED_Clear
  33:User/main.c   **** 		OLED_ShowString(6,3,(uint8_t*)"stm32f103RC",100);//
 612              		.loc 1 33 3 discriminator 1
 613 008c 6423     		movs	r3, #100
 614 008e 0F4A     		ldr	r2, .L3+8
 615 0090 0321     		movs	r1, #3
 616 0092 0620     		movs	r0, #6
 617 0094 FFF7FEFF 		bl	OLED_ShowString
  34:User/main.c   **** 		Delay_ms(1000);	
 618              		.loc 1 34 3 discriminator 1
 619 0098 4FF47A70 		mov	r0, #1000
 620 009c FFF7FEFF 		bl	Delay_ms
  35:User/main.c   **** 		OLED_Clear();
 621              		.loc 1 35 3 discriminator 1
 622 00a0 FFF7FEFF 		bl	OLED_Clear
  36:User/main.c   **** 		OLED_DrawBMP(0,0,128,8,BMP1);  //(FLASH
 623              		.loc 1 36 3 discriminator 1
 624 00a4 0A4B     		ldr	r3, .L3+12
 625 00a6 0093     		str	r3, [sp]
 626 00a8 0823     		movs	r3, #8
 627 00aa 8022     		movs	r2, #128
 628 00ac 0021     		movs	r1, #0
 629 00ae 0020     		movs	r0, #0
 630 00b0 FFF7FEFF 		bl	OLED_DrawBMP
  37:User/main.c   **** 		Delay_ms(1000);	
 631              		.loc 1 37 3 discriminator 1
 632 00b4 4FF47A70 		mov	r0, #1000
 633 00b8 FFF7FEFF 		bl	Delay_ms
  38:User/main.c   **** 		UART_Sendstring((uint8_t*)"\r\nEnglish serial port test\r\n");
 634              		.loc 1 38 3 discriminator 1
 635 00bc 0548     		ldr	r0, .L3+16
 636 00be FFF7FEFF 		bl	UART_Sendstring
  26:User/main.c   **** 		GPIOC->BRR = GPIO_Pin_2|GPIO_Pin_13;
 637              		.loc 1 26 14 discriminator 1
 638 00c2 CBE7     		b	.L2
 639              	.L4:
 640              		.align	2
 641              	.L3:
 642 00c4 00080140 		.word	1073809408
 643 00c8 00100140 		.word	1073811456
ARM GAS  C:\Users\no\AppData\Local\Temp\ccG7wc6f.s 			page 37


 644 00cc 00000000 		.word	.LC0
 645 00d0 00000000 		.word	BMP1
 646 00d4 0C000000 		.word	.LC1
 647              		.cfi_endproc
 648              	.LFE32:
 650              		.text
 651              	.Letext0:
 652              		.file 2 "d:\\program files (x86)\\gnu arm embedded toolchain\\9 2020-q2-update\\arm-none-eabi\\inc
 653              		.file 3 "d:\\program files (x86)\\gnu arm embedded toolchain\\9 2020-q2-update\\arm-none-eabi\\inc
 654              		.file 4 "CMSIS/CM3/CoreSupport/core_cm3.h"
 655              		.file 5 "CMSIS/CM3/DeviceSupport/ST/STM32F10x/system_stm32f10x.h"
 656              		.file 6 "CMSIS/CM3/DeviceSupport/ST/STM32F10x/stm32f10x.h"
 657              		.file 7 "Libraries/inc/stm32f10x_gpio.h"
 658              		.file 8 "d:\\program files (x86)\\gnu arm embedded toolchain\\9 2020-q2-update\\lib\\gcc\\arm-none
 659              		.file 9 "d:\\program files (x86)\\gnu arm embedded toolchain\\9 2020-q2-update\\arm-none-eabi\\inc
 660              		.file 10 "d:\\program files (x86)\\gnu arm embedded toolchain\\9 2020-q2-update\\arm-none-eabi\\in
 661              		.file 11 "d:\\program files (x86)\\gnu arm embedded toolchain\\9 2020-q2-update\\arm-none-eabi\\in
 662              		.file 12 "d:\\program files (x86)\\gnu arm embedded toolchain\\9 2020-q2-update\\arm-none-eabi\\in
 663              		.file 13 "UserLibaries/bspinc/bmp.h"
 664              		.file 14 "UserLibaries/bspinc/usart.h"
ARM GAS  C:\Users\no\AppData\Local\Temp\ccG7wc6f.s 			page 38

