ARM GAS  C:\Users\no\AppData\Local\Temp\ccj1IbJs.s 			page 1


   1              		.cpu cortex-m3
   2              		.eabi_attribute 20, 1
   3              		.eabi_attribute 21, 1
   4              		.eabi_attribute 23, 3
   5              		.eabi_attribute 24, 1
   6              		.eabi_attribute 25, 1
   7              		.eabi_attribute 26, 1
   8              		.eabi_attribute 30, 6
   9              		.eabi_attribute 34, 1
  10              		.eabi_attribute 18, 4
  11              		.file	"usart.c"
  12              		.text
  13              	.Ltext0:
  14              		.cfi_sections	.debug_frame
  15              		.comm	RXData,20,4
  16              		.section	.bss.RXcont,"aw",%nobits
  17              		.align	2
  20              	RXcont:
  21 0000 00000000 		.space	4
  22              		.section	.bss.Vale,"aw",%nobits
  23              		.align	2
  26              	Vale:
  27 0000 00000000 		.space	4
  28              		.section	.text.uart_init,"ax",%progbits
  29              		.align	1
  30              		.global	uart_init
  31              		.arch armv7-m
  32              		.syntax unified
  33              		.thumb
  34              		.thumb_func
  35              		.fpu softvfp
  37              	uart_init:
  38              	.LFB32:
  39              		.file 1 "UserLibaries/bspsrc/usart.c"
   1:UserLibaries/bspsrc/usart.c **** #include "usart.h"
   2:UserLibaries/bspsrc/usart.c **** 
   3:UserLibaries/bspsrc/usart.c **** uint8_t RXData[20];
   4:UserLibaries/bspsrc/usart.c **** static int RXcont=0;
   5:UserLibaries/bspsrc/usart.c **** static int Vale=0;
   6:UserLibaries/bspsrc/usart.c **** void uart_init(uint32_t Rate)
   7:UserLibaries/bspsrc/usart.c **** {
  40              		.loc 1 7 1
  41              		.cfi_startproc
  42              		@ args = 0, pretend = 0, frame = 32
  43              		@ frame_needed = 1, uses_anonymous_args = 0
  44 0000 80B5     		push	{r7, lr}
  45              	.LCFI0:
  46              		.cfi_def_cfa_offset 8
  47              		.cfi_offset 7, -8
  48              		.cfi_offset 14, -4
  49 0002 88B0     		sub	sp, sp, #32
  50              	.LCFI1:
  51              		.cfi_def_cfa_offset 40
  52 0004 00AF     		add	r7, sp, #0
  53              	.LCFI2:
  54              		.cfi_def_cfa_register 7
  55 0006 7860     		str	r0, [r7, #4]
ARM GAS  C:\Users\no\AppData\Local\Temp\ccj1IbJs.s 			page 2


   8:UserLibaries/bspsrc/usart.c **** 	GPIO_InitTypeDef GPIO_InitStruct;
   9:UserLibaries/bspsrc/usart.c **** 	USART_InitTypeDef USART_InitStruct;
  10:UserLibaries/bspsrc/usart.c **** 	NVIC_InitTypeDef  NVIC_InitStruct;
  11:UserLibaries/bspsrc/usart.c **** 	
  12:UserLibaries/bspsrc/usart.c ****  	RCC_APB2PeriphClockCmd(RCC_APB2Periph_GPIOA|RCC_APB2Periph_AFIO,ENABLE);
  56              		.loc 1 12 3
  57 0008 0121     		movs	r1, #1
  58 000a 0520     		movs	r0, #5
  59 000c FFF7FEFF 		bl	RCC_APB2PeriphClockCmd
  13:UserLibaries/bspsrc/usart.c **** 	RCC_APB1PeriphClockCmd(RCC_APB1Periph_USART2,ENABLE);
  60              		.loc 1 13 2
  61 0010 0121     		movs	r1, #1
  62 0012 4FF40030 		mov	r0, #131072
  63 0016 FFF7FEFF 		bl	RCC_APB1PeriphClockCmd
  14:UserLibaries/bspsrc/usart.c **** 	NVIC_PriorityGroupConfig(NVIC_PriorityGroup_1);
  64              		.loc 1 14 2
  65 001a 4FF4C060 		mov	r0, #1536
  66 001e FFF7FEFF 		bl	NVIC_PriorityGroupConfig
  15:UserLibaries/bspsrc/usart.c **** 	//uart_configuration
  16:UserLibaries/bspsrc/usart.c **** 	GPIO_InitStruct.GPIO_Pin=GPIO_Pin_2;
  67              		.loc 1 16 26
  68 0022 0423     		movs	r3, #4
  69 0024 BB83     		strh	r3, [r7, #28]	@ movhi
  17:UserLibaries/bspsrc/usart.c **** 	GPIO_InitStruct.GPIO_Speed=GPIO_Speed_50MHz;
  70              		.loc 1 17 28
  71 0026 0323     		movs	r3, #3
  72 0028 BB77     		strb	r3, [r7, #30]
  18:UserLibaries/bspsrc/usart.c **** 	GPIO_InitStruct.GPIO_Mode=GPIO_Mode_AF_PP;
  73              		.loc 1 18 27
  74 002a 1823     		movs	r3, #24
  75 002c FB77     		strb	r3, [r7, #31]
  19:UserLibaries/bspsrc/usart.c **** 	GPIO_Init(GPIOA,&GPIO_InitStruct);
  76              		.loc 1 19 2
  77 002e 07F11C03 		add	r3, r7, #28
  78 0032 1946     		mov	r1, r3
  79 0034 1F48     		ldr	r0, .L2
  80 0036 FFF7FEFF 		bl	GPIO_Init
  20:UserLibaries/bspsrc/usart.c **** 	
  21:UserLibaries/bspsrc/usart.c **** 	GPIO_InitStruct.GPIO_Pin=GPIO_Pin_3;
  81              		.loc 1 21 26
  82 003a 0823     		movs	r3, #8
  83 003c BB83     		strh	r3, [r7, #28]	@ movhi
  22:UserLibaries/bspsrc/usart.c **** 	GPIO_InitStruct.GPIO_Speed=GPIO_Speed_50MHz;
  84              		.loc 1 22 28
  85 003e 0323     		movs	r3, #3
  86 0040 BB77     		strb	r3, [r7, #30]
  23:UserLibaries/bspsrc/usart.c **** 	GPIO_InitStruct.GPIO_Mode=GPIO_Mode_IN_FLOATING;
  87              		.loc 1 23 27
  88 0042 0423     		movs	r3, #4
  89 0044 FB77     		strb	r3, [r7, #31]
  24:UserLibaries/bspsrc/usart.c **** 	GPIO_Init(GPIOA,&GPIO_InitStruct);
  90              		.loc 1 24 2
  91 0046 07F11C03 		add	r3, r7, #28
  92 004a 1946     		mov	r1, r3
  93 004c 1948     		ldr	r0, .L2
  94 004e FFF7FEFF 		bl	GPIO_Init
  25:UserLibaries/bspsrc/usart.c **** 	//uart NVIC configuration
ARM GAS  C:\Users\no\AppData\Local\Temp\ccj1IbJs.s 			page 3


  26:UserLibaries/bspsrc/usart.c **** 	NVIC_PriorityGroupConfig(NVIC_PriorityGroup_1);
  95              		.loc 1 26 2
  96 0052 4FF4C060 		mov	r0, #1536
  97 0056 FFF7FEFF 		bl	NVIC_PriorityGroupConfig
  27:UserLibaries/bspsrc/usart.c **** 	NVIC_InitStruct.NVIC_IRQChannel=USART2_IRQn;
  98              		.loc 1 27 33
  99 005a 2623     		movs	r3, #38
 100 005c 3B72     		strb	r3, [r7, #8]
  28:UserLibaries/bspsrc/usart.c **** 	NVIC_InitStruct.NVIC_IRQChannelPreemptionPriority=0;
 101              		.loc 1 28 51
 102 005e 0023     		movs	r3, #0
 103 0060 7B72     		strb	r3, [r7, #9]
  29:UserLibaries/bspsrc/usart.c **** 	NVIC_InitStruct.NVIC_IRQChannelSubPriority=0;
 104              		.loc 1 29 44
 105 0062 0023     		movs	r3, #0
 106 0064 BB72     		strb	r3, [r7, #10]
  30:UserLibaries/bspsrc/usart.c **** 	NVIC_InitStruct.NVIC_IRQChannelCmd=ENABLE;
 107              		.loc 1 30 36
 108 0066 0123     		movs	r3, #1
 109 0068 FB72     		strb	r3, [r7, #11]
  31:UserLibaries/bspsrc/usart.c **** 	NVIC_Init(&NVIC_InitStruct);
 110              		.loc 1 31 2
 111 006a 07F10803 		add	r3, r7, #8
 112 006e 1846     		mov	r0, r3
 113 0070 FFF7FEFF 		bl	NVIC_Init
  32:UserLibaries/bspsrc/usart.c **** 	
  33:UserLibaries/bspsrc/usart.c **** 	USART_InitStruct.USART_BaudRate=Rate;
 114              		.loc 1 33 33
 115 0074 7B68     		ldr	r3, [r7, #4]
 116 0076 FB60     		str	r3, [r7, #12]
  34:UserLibaries/bspsrc/usart.c **** 	USART_InitStruct.USART_WordLength=USART_WordLength_8b;
 117              		.loc 1 34 35
 118 0078 0023     		movs	r3, #0
 119 007a 3B82     		strh	r3, [r7, #16]	@ movhi
  35:UserLibaries/bspsrc/usart.c **** 	USART_InitStruct.USART_StopBits=USART_StopBits_1;
 120              		.loc 1 35 33
 121 007c 0023     		movs	r3, #0
 122 007e 7B82     		strh	r3, [r7, #18]	@ movhi
  36:UserLibaries/bspsrc/usart.c **** 	USART_InitStruct.USART_Parity=USART_Parity_No;
 123              		.loc 1 36 31
 124 0080 0023     		movs	r3, #0
 125 0082 BB82     		strh	r3, [r7, #20]	@ movhi
  37:UserLibaries/bspsrc/usart.c **** 	USART_InitStruct.USART_Mode=USART_Mode_Rx|USART_Mode_Tx;
 126              		.loc 1 37 29
 127 0084 0C23     		movs	r3, #12
 128 0086 FB82     		strh	r3, [r7, #22]	@ movhi
  38:UserLibaries/bspsrc/usart.c **** 	USART_InitStruct.USART_HardwareFlowControl=USART_HardwareFlowControl_None;
 129              		.loc 1 38 44
 130 0088 0023     		movs	r3, #0
 131 008a 3B83     		strh	r3, [r7, #24]	@ movhi
  39:UserLibaries/bspsrc/usart.c ****   USART_Init(USART2,&USART_InitStruct);
 132              		.loc 1 39 3
 133 008c 07F10C03 		add	r3, r7, #12
 134 0090 1946     		mov	r1, r3
 135 0092 0948     		ldr	r0, .L2+4
 136 0094 FFF7FEFF 		bl	USART_Init
  40:UserLibaries/bspsrc/usart.c **** 	USART_Cmd(USART2,ENABLE);
ARM GAS  C:\Users\no\AppData\Local\Temp\ccj1IbJs.s 			page 4


 137              		.loc 1 40 2
 138 0098 0121     		movs	r1, #1
 139 009a 0748     		ldr	r0, .L2+4
 140 009c FFF7FEFF 		bl	USART_Cmd
  41:UserLibaries/bspsrc/usart.c **** 	//uart IT_RX ENABLE
  42:UserLibaries/bspsrc/usart.c **** 	USART_ITConfig(USART2,USART_IT_RXNE,ENABLE);
 141              		.loc 1 42 2
 142 00a0 0122     		movs	r2, #1
 143 00a2 40F22551 		movw	r1, #1317
 144 00a6 0448     		ldr	r0, .L2+4
 145 00a8 FFF7FEFF 		bl	USART_ITConfig
  43:UserLibaries/bspsrc/usart.c **** 	
  44:UserLibaries/bspsrc/usart.c **** }
 146              		.loc 1 44 1
 147 00ac 00BF     		nop
 148 00ae 2037     		adds	r7, r7, #32
 149              	.LCFI3:
 150              		.cfi_def_cfa_offset 8
 151 00b0 BD46     		mov	sp, r7
 152              	.LCFI4:
 153              		.cfi_def_cfa_register 13
 154              		@ sp needed
 155 00b2 80BD     		pop	{r7, pc}
 156              	.L3:
 157              		.align	2
 158              	.L2:
 159 00b4 00080140 		.word	1073809408
 160 00b8 00440040 		.word	1073759232
 161              		.cfi_endproc
 162              	.LFE32:
 164              		.section	.text.UART_Sendstring,"ax",%progbits
 165              		.align	1
 166              		.global	UART_Sendstring
 167              		.syntax unified
 168              		.thumb
 169              		.thumb_func
 170              		.fpu softvfp
 172              	UART_Sendstring:
 173              	.LFB33:
  45:UserLibaries/bspsrc/usart.c **** 
  46:UserLibaries/bspsrc/usart.c **** //USART发送一个字符串，且无论什么条件一定会清零缓存数组
  47:UserLibaries/bspsrc/usart.c **** void UART_Sendstring(uint8_t *str)
  48:UserLibaries/bspsrc/usart.c **** {
 174              		.loc 1 48 1
 175              		.cfi_startproc
 176              		@ args = 0, pretend = 0, frame = 16
 177              		@ frame_needed = 1, uses_anonymous_args = 0
 178 0000 80B5     		push	{r7, lr}
 179              	.LCFI5:
 180              		.cfi_def_cfa_offset 8
 181              		.cfi_offset 7, -8
 182              		.cfi_offset 14, -4
 183 0002 84B0     		sub	sp, sp, #16
 184              	.LCFI6:
 185              		.cfi_def_cfa_offset 24
 186 0004 00AF     		add	r7, sp, #0
 187              	.LCFI7:
ARM GAS  C:\Users\no\AppData\Local\Temp\ccj1IbJs.s 			page 5


 188              		.cfi_def_cfa_register 7
 189 0006 7860     		str	r0, [r7, #4]
  49:UserLibaries/bspsrc/usart.c **** 	u8 tmpe=0;
 190              		.loc 1 49 5
 191 0008 0023     		movs	r3, #0
 192 000a FB73     		strb	r3, [r7, #15]
 193              	.L6:
  50:UserLibaries/bspsrc/usart.c **** 	do
  51:UserLibaries/bspsrc/usart.c **** 	{
  52:UserLibaries/bspsrc/usart.c **** 	USART_SendData(USART2,(uint8_t)str[tmpe]);
 194              		.loc 1 52 36
 195 000c FB7B     		ldrb	r3, [r7, #15]	@ zero_extendqisi2
 196 000e 7A68     		ldr	r2, [r7, #4]
 197 0010 1344     		add	r3, r3, r2
 198 0012 1B78     		ldrb	r3, [r3]	@ zero_extendqisi2
 199              		.loc 1 52 2
 200 0014 9BB2     		uxth	r3, r3
 201 0016 1946     		mov	r1, r3
 202 0018 0C48     		ldr	r0, .L7
 203 001a FFF7FEFF 		bl	USART_SendData
  53:UserLibaries/bspsrc/usart.c **** 	while(USART_GetFlagStatus(USART2,USART_FLAG_TXE)==RESET);
 204              		.loc 1 53 7
 205 001e 00BF     		nop
 206              	.L5:
 207              		.loc 1 53 8 discriminator 1
 208 0020 8021     		movs	r1, #128
 209 0022 0A48     		ldr	r0, .L7
 210 0024 FFF7FEFF 		bl	USART_GetFlagStatus
 211 0028 0346     		mov	r3, r0
 212              		.loc 1 53 7 discriminator 1
 213 002a 002B     		cmp	r3, #0
 214 002c F8D0     		beq	.L5
  54:UserLibaries/bspsrc/usart.c **** 	tmpe++;
 215              		.loc 1 54 6
 216 002e FB7B     		ldrb	r3, [r7, #15]	@ zero_extendqisi2
 217 0030 0133     		adds	r3, r3, #1
 218 0032 FB73     		strb	r3, [r7, #15]
  55:UserLibaries/bspsrc/usart.c **** 	}while(str[tmpe] !=RESET);
 219              		.loc 1 55 12
 220 0034 FB7B     		ldrb	r3, [r7, #15]	@ zero_extendqisi2
 221 0036 7A68     		ldr	r2, [r7, #4]
 222 0038 1344     		add	r3, r3, r2
 223 003a 1B78     		ldrb	r3, [r3]	@ zero_extendqisi2
 224              		.loc 1 55 2
 225 003c 002B     		cmp	r3, #0
 226 003e E5D1     		bne	.L6
  56:UserLibaries/bspsrc/usart.c **** 	Clear_Data();
 227              		.loc 1 56 2
 228 0040 FFF7FEFF 		bl	Clear_Data
  57:UserLibaries/bspsrc/usart.c **** }
 229              		.loc 1 57 1
 230 0044 00BF     		nop
 231 0046 1037     		adds	r7, r7, #16
 232              	.LCFI8:
 233              		.cfi_def_cfa_offset 8
 234 0048 BD46     		mov	sp, r7
 235              	.LCFI9:
ARM GAS  C:\Users\no\AppData\Local\Temp\ccj1IbJs.s 			page 6


 236              		.cfi_def_cfa_register 13
 237              		@ sp needed
 238 004a 80BD     		pop	{r7, pc}
 239              	.L8:
 240              		.align	2
 241              	.L7:
 242 004c 00440040 		.word	1073759232
 243              		.cfi_endproc
 244              	.LFE33:
 246              		.section	.text.Clear_Data,"ax",%progbits
 247              		.align	1
 248              		.global	Clear_Data
 249              		.syntax unified
 250              		.thumb
 251              		.thumb_func
 252              		.fpu softvfp
 254              	Clear_Data:
 255              	.LFB34:
  58:UserLibaries/bspsrc/usart.c **** //缓存数组清理函数/且清理完之后会打开uart的中断标志USART_IT_RXNE
  59:UserLibaries/bspsrc/usart.c **** void Clear_Data(void)
  60:UserLibaries/bspsrc/usart.c **** {
 256              		.loc 1 60 1
 257              		.cfi_startproc
 258              		@ args = 0, pretend = 0, frame = 8
 259              		@ frame_needed = 1, uses_anonymous_args = 0
 260 0000 80B5     		push	{r7, lr}
 261              	.LCFI10:
 262              		.cfi_def_cfa_offset 8
 263              		.cfi_offset 7, -8
 264              		.cfi_offset 14, -4
 265 0002 82B0     		sub	sp, sp, #8
 266              	.LCFI11:
 267              		.cfi_def_cfa_offset 16
 268 0004 00AF     		add	r7, sp, #0
 269              	.LCFI12:
 270              		.cfi_def_cfa_register 7
  61:UserLibaries/bspsrc/usart.c **** 	uint8_t i=0;
 271              		.loc 1 61 10
 272 0006 0023     		movs	r3, #0
 273 0008 FB71     		strb	r3, [r7, #7]
  62:UserLibaries/bspsrc/usart.c **** 	for(i=0;i<20;i++)//清理该数组的20个元素
 274              		.loc 1 62 7
 275 000a 0023     		movs	r3, #0
 276 000c FB71     		strb	r3, [r7, #7]
 277              		.loc 1 62 2
 278 000e 06E0     		b	.L10
 279              	.L11:
  63:UserLibaries/bspsrc/usart.c **** 	{
  64:UserLibaries/bspsrc/usart.c **** 		RXData[i]=RESET;
 280              		.loc 1 64 9 discriminator 3
 281 0010 FB79     		ldrb	r3, [r7, #7]	@ zero_extendqisi2
 282              		.loc 1 64 12 discriminator 3
 283 0012 094A     		ldr	r2, .L12
 284 0014 0021     		movs	r1, #0
 285 0016 D154     		strb	r1, [r2, r3]
  62:UserLibaries/bspsrc/usart.c **** 	for(i=0;i<20;i++)//清理该数组的20个元素
 286              		.loc 1 62 16 discriminator 3
ARM GAS  C:\Users\no\AppData\Local\Temp\ccj1IbJs.s 			page 7


 287 0018 FB79     		ldrb	r3, [r7, #7]	@ zero_extendqisi2
 288 001a 0133     		adds	r3, r3, #1
 289 001c FB71     		strb	r3, [r7, #7]
 290              	.L10:
  62:UserLibaries/bspsrc/usart.c **** 	for(i=0;i<20;i++)//清理该数组的20个元素
 291              		.loc 1 62 2 discriminator 1
 292 001e FB79     		ldrb	r3, [r7, #7]	@ zero_extendqisi2
 293 0020 132B     		cmp	r3, #19
 294 0022 F5D9     		bls	.L11
  65:UserLibaries/bspsrc/usart.c **** 	}
  66:UserLibaries/bspsrc/usart.c **** 	USART_ITConfig(USART2,USART_IT_RXNE,ENABLE);
 295              		.loc 1 66 2
 296 0024 0122     		movs	r2, #1
 297 0026 40F22551 		movw	r1, #1317
 298 002a 0448     		ldr	r0, .L12+4
 299 002c FFF7FEFF 		bl	USART_ITConfig
  67:UserLibaries/bspsrc/usart.c **** }
 300              		.loc 1 67 1
 301 0030 00BF     		nop
 302 0032 0837     		adds	r7, r7, #8
 303              	.LCFI13:
 304              		.cfi_def_cfa_offset 8
 305 0034 BD46     		mov	sp, r7
 306              	.LCFI14:
 307              		.cfi_def_cfa_register 13
 308              		@ sp needed
 309 0036 80BD     		pop	{r7, pc}
 310              	.L13:
 311              		.align	2
 312              	.L12:
 313 0038 00000000 		.word	RXData
 314 003c 00440040 		.word	1073759232
 315              		.cfi_endproc
 316              	.LFE34:
 318              		.section	.text.Compare_String,"ax",%progbits
 319              		.align	1
 320              		.global	Compare_String
 321              		.syntax unified
 322              		.thumb
 323              		.thumb_func
 324              		.fpu softvfp
 326              	Compare_String:
 327              	.LFB35:
  68:UserLibaries/bspsrc/usart.c **** //该函数除了用来返回接收数据的大小，还用来使能USART2的中断
  69:UserLibaries/bspsrc/usart.c **** int Compare_String(void)
  70:UserLibaries/bspsrc/usart.c **** {
 328              		.loc 1 70 1
 329              		.cfi_startproc
 330              		@ args = 0, pretend = 0, frame = 8
 331              		@ frame_needed = 1, uses_anonymous_args = 0
 332 0000 80B5     		push	{r7, lr}
 333              	.LCFI15:
 334              		.cfi_def_cfa_offset 8
 335              		.cfi_offset 7, -8
 336              		.cfi_offset 14, -4
 337 0002 82B0     		sub	sp, sp, #8
 338              	.LCFI16:
ARM GAS  C:\Users\no\AppData\Local\Temp\ccj1IbJs.s 			page 8


 339              		.cfi_def_cfa_offset 16
 340 0004 00AF     		add	r7, sp, #0
 341              	.LCFI17:
 342              		.cfi_def_cfa_register 7
  71:UserLibaries/bspsrc/usart.c **** 	int cont=RESET;
 343              		.loc 1 71 6
 344 0006 0023     		movs	r3, #0
 345 0008 7B60     		str	r3, [r7, #4]
  72:UserLibaries/bspsrc/usart.c **** 	cont=Vale;
 346              		.loc 1 72 6
 347 000a 084B     		ldr	r3, .L16
 348 000c 1B68     		ldr	r3, [r3]
 349 000e 7B60     		str	r3, [r7, #4]
  73:UserLibaries/bspsrc/usart.c **** 	Vale=RESET;
 350              		.loc 1 73 6
 351 0010 064B     		ldr	r3, .L16
 352 0012 0022     		movs	r2, #0
 353 0014 1A60     		str	r2, [r3]
  74:UserLibaries/bspsrc/usart.c ****   USART_ITConfig(USART2,USART_IT_RXNE,ENABLE);
 354              		.loc 1 74 3
 355 0016 0122     		movs	r2, #1
 356 0018 40F22551 		movw	r1, #1317
 357 001c 0448     		ldr	r0, .L16+4
 358 001e FFF7FEFF 		bl	USART_ITConfig
  75:UserLibaries/bspsrc/usart.c **** 	return cont;
 359              		.loc 1 75 9
 360 0022 7B68     		ldr	r3, [r7, #4]
  76:UserLibaries/bspsrc/usart.c **** }
 361              		.loc 1 76 1
 362 0024 1846     		mov	r0, r3
 363 0026 0837     		adds	r7, r7, #8
 364              	.LCFI18:
 365              		.cfi_def_cfa_offset 8
 366 0028 BD46     		mov	sp, r7
 367              	.LCFI19:
 368              		.cfi_def_cfa_register 13
 369              		@ sp needed
 370 002a 80BD     		pop	{r7, pc}
 371              	.L17:
 372              		.align	2
 373              	.L16:
 374 002c 00000000 		.word	Vale
 375 0030 00440040 		.word	1073759232
 376              		.cfi_endproc
 377              	.LFE35:
 379              		.section	.text.USART2_IRQHandler,"ax",%progbits
 380              		.align	1
 381              		.global	USART2_IRQHandler
 382              		.syntax unified
 383              		.thumb
 384              		.thumb_func
 385              		.fpu softvfp
 387              	USART2_IRQHandler:
 388              	.LFB36:
  77:UserLibaries/bspsrc/usart.c **** /*
  78:UserLibaries/bspsrc/usart.c **** *description:被定义在本文件中的全局变量RXData数组为方便使用也在uart.h
  79:UserLibaries/bspsrc/usart.c **** *            中使用extern关键字声明。
ARM GAS  C:\Users\no\AppData\Local\Temp\ccj1IbJs.s 			page 9


  80:UserLibaries/bspsrc/usart.c **** */
  81:UserLibaries/bspsrc/usart.c **** //UART的中断接收函数，接收到的所有内容都会存放到定义在本文件的RXData数
  82:UserLibaries/bspsrc/usart.c **** void USART2_IRQHandler(void)
  83:UserLibaries/bspsrc/usart.c **** {
 389              		.loc 1 83 1
 390              		.cfi_startproc
 391              		@ args = 0, pretend = 0, frame = 8
 392              		@ frame_needed = 1, uses_anonymous_args = 0
 393 0000 80B5     		push	{r7, lr}
 394              	.LCFI20:
 395              		.cfi_def_cfa_offset 8
 396              		.cfi_offset 7, -8
 397              		.cfi_offset 14, -4
 398 0002 82B0     		sub	sp, sp, #8
 399              	.LCFI21:
 400              		.cfi_def_cfa_offset 16
 401 0004 00AF     		add	r7, sp, #0
 402              	.LCFI22:
 403              		.cfi_def_cfa_register 7
  84:UserLibaries/bspsrc/usart.c **** 	uint8_t tmp=0;
 404              		.loc 1 84 10
 405 0006 0023     		movs	r3, #0
 406 0008 FB71     		strb	r3, [r7, #7]
  85:UserLibaries/bspsrc/usart.c **** 	if(USART_GetITStatus(USART2,USART_IT_RXNE)==SET)
 407              		.loc 1 85 5
 408 000a 40F22551 		movw	r1, #1317
 409 000e 1D48     		ldr	r0, .L21
 410 0010 FFF7FEFF 		bl	USART_GetITStatus
 411 0014 0346     		mov	r3, r0
 412              		.loc 1 85 4
 413 0016 012B     		cmp	r3, #1
 414 0018 30D1     		bne	.L20
  86:UserLibaries/bspsrc/usart.c **** 	{
  87:UserLibaries/bspsrc/usart.c **** 		USART_ClearITPendingBit(USART2,USART_IT_RXNE);
 415              		.loc 1 87 3
 416 001a 40F22551 		movw	r1, #1317
 417 001e 1948     		ldr	r0, .L21
 418 0020 FFF7FEFF 		bl	USART_ClearITPendingBit
  88:UserLibaries/bspsrc/usart.c **** 		tmp=USART_ReceiveData(USART2);
 419              		.loc 1 88 7
 420 0024 1748     		ldr	r0, .L21
 421 0026 FFF7FEFF 		bl	USART_ReceiveData
 422 002a 0346     		mov	r3, r0
 423              		.loc 1 88 6
 424 002c FB71     		strb	r3, [r7, #7]
  89:UserLibaries/bspsrc/usart.c **** 		RXData[RXcont]=tmp;
 425              		.loc 1 89 9
 426 002e 164B     		ldr	r3, .L21+4
 427 0030 1B68     		ldr	r3, [r3]
 428              		.loc 1 89 17
 429 0032 1649     		ldr	r1, .L21+8
 430 0034 FA79     		ldrb	r2, [r7, #7]
 431 0036 CA54     		strb	r2, [r1, r3]
  90:UserLibaries/bspsrc/usart.c **** 		RXcont++;
 432              		.loc 1 90 9
 433 0038 134B     		ldr	r3, .L21+4
 434 003a 1B68     		ldr	r3, [r3]
ARM GAS  C:\Users\no\AppData\Local\Temp\ccj1IbJs.s 			page 10


 435 003c 0133     		adds	r3, r3, #1
 436 003e 124A     		ldr	r2, .L21+4
 437 0040 1360     		str	r3, [r2]
  91:UserLibaries/bspsrc/usart.c **** 		if(tmp=='\n')
 438              		.loc 1 91 5
 439 0042 FB79     		ldrb	r3, [r7, #7]	@ zero_extendqisi2
 440 0044 0A2B     		cmp	r3, #10
 441 0046 19D1     		bne	.L20
  92:UserLibaries/bspsrc/usart.c **** 		{
  93:UserLibaries/bspsrc/usart.c **** 			RXData[RXcont-1]=RESET;
 442              		.loc 1 93 17
 443 0048 0F4B     		ldr	r3, .L21+4
 444 004a 1B68     		ldr	r3, [r3]
 445 004c 013B     		subs	r3, r3, #1
 446              		.loc 1 93 20
 447 004e 0F4A     		ldr	r2, .L21+8
 448 0050 0021     		movs	r1, #0
 449 0052 D154     		strb	r1, [r2, r3]
  94:UserLibaries/bspsrc/usart.c **** 			RXData[RXcont-2]=RESET;
 450              		.loc 1 94 17
 451 0054 0C4B     		ldr	r3, .L21+4
 452 0056 1B68     		ldr	r3, [r3]
 453 0058 023B     		subs	r3, r3, #2
 454              		.loc 1 94 20
 455 005a 0C4A     		ldr	r2, .L21+8
 456 005c 0021     		movs	r1, #0
 457 005e D154     		strb	r1, [r2, r3]
  95:UserLibaries/bspsrc/usart.c **** 			Vale=RXcont-2;
 458              		.loc 1 95 15
 459 0060 094B     		ldr	r3, .L21+4
 460 0062 1B68     		ldr	r3, [r3]
 461 0064 023B     		subs	r3, r3, #2
 462              		.loc 1 95 8
 463 0066 0A4A     		ldr	r2, .L21+12
 464 0068 1360     		str	r3, [r2]
  96:UserLibaries/bspsrc/usart.c **** 			RXcont=RESET;
 465              		.loc 1 96 10
 466 006a 074B     		ldr	r3, .L21+4
 467 006c 0022     		movs	r2, #0
 468 006e 1A60     		str	r2, [r3]
  97:UserLibaries/bspsrc/usart.c **** 			USART_ITConfig(USART2,USART_IT_RXNE,DISABLE);
 469              		.loc 1 97 4
 470 0070 0022     		movs	r2, #0
 471 0072 40F22551 		movw	r1, #1317
 472 0076 0348     		ldr	r0, .L21
 473 0078 FFF7FEFF 		bl	USART_ITConfig
 474              	.L20:
  98:UserLibaries/bspsrc/usart.c **** //  			UART_Sendstring(RXData);
  99:UserLibaries/bspsrc/usart.c **** 		}
 100:UserLibaries/bspsrc/usart.c ****   }
 101:UserLibaries/bspsrc/usart.c **** 
 102:UserLibaries/bspsrc/usart.c **** 		
 103:UserLibaries/bspsrc/usart.c **** }
 475              		.loc 1 103 1
 476 007c 00BF     		nop
 477 007e 0837     		adds	r7, r7, #8
 478              	.LCFI23:
ARM GAS  C:\Users\no\AppData\Local\Temp\ccj1IbJs.s 			page 11


 479              		.cfi_def_cfa_offset 8
 480 0080 BD46     		mov	sp, r7
 481              	.LCFI24:
 482              		.cfi_def_cfa_register 13
 483              		@ sp needed
 484 0082 80BD     		pop	{r7, pc}
 485              	.L22:
 486              		.align	2
 487              	.L21:
 488 0084 00440040 		.word	1073759232
 489 0088 00000000 		.word	RXcont
 490 008c 00000000 		.word	RXData
 491 0090 00000000 		.word	Vale
 492              		.cfi_endproc
 493              	.LFE36:
 495              		.text
 496              	.Letext0:
 497              		.file 2 "d:\\program files (x86)\\gnu arm embedded toolchain\\9 2020-q2-update\\arm-none-eabi\\inc
 498              		.file 3 "d:\\program files (x86)\\gnu arm embedded toolchain\\9 2020-q2-update\\arm-none-eabi\\inc
 499              		.file 4 "CMSIS/CM3/CoreSupport/core_cm3.h"
 500              		.file 5 "CMSIS/CM3/DeviceSupport/ST/STM32F10x/system_stm32f10x.h"
 501              		.file 6 "CMSIS/CM3/DeviceSupport/ST/STM32F10x/stm32f10x.h"
 502              		.file 7 "Libraries/inc/stm32f10x_gpio.h"
 503              		.file 8 "Libraries/inc/stm32f10x_usart.h"
 504              		.file 9 "Libraries/inc/misc.h"
 505              		.file 10 "d:\\program files (x86)\\gnu arm embedded toolchain\\9 2020-q2-update\\lib\\gcc\\arm-non
 506              		.file 11 "d:\\program files (x86)\\gnu arm embedded toolchain\\9 2020-q2-update\\arm-none-eabi\\in
 507              		.file 12 "d:\\program files (x86)\\gnu arm embedded toolchain\\9 2020-q2-update\\arm-none-eabi\\in
 508              		.file 13 "d:\\program files (x86)\\gnu arm embedded toolchain\\9 2020-q2-update\\arm-none-eabi\\in
 509              		.file 14 "UserLibaries/bspinc/usart.h"
ARM GAS  C:\Users\no\AppData\Local\Temp\ccj1IbJs.s 			page 12

